
/home/sammy/rocketry_ground_sensors/BOTR-Ground-Sensor-Array/build/driver/payload.elf:     file format elf32-littlearm

Sections:
Idx Name          Size      VMA       LMA       File off  Algn
  0 .boot2        00000100  10000000  10000000  00001000  2**0
                  CONTENTS, ALLOC, LOAD, READONLY, CODE
  1 .text         00002b10  10000100  10000100  00001100  2**3
                  CONTENTS, ALLOC, LOAD, READONLY, CODE
  2 .rodata       000000f8  10002c10  10002c10  00003c10  2**2
                  CONTENTS, ALLOC, LOAD, READONLY, DATA
  3 .binary_info  00000024  10002d08  10002d08  00003d08  2**2
                  CONTENTS, ALLOC, LOAD, DATA
  4 .ram_vector_table 000000c0  20000000  20000000  00004acc  2**2
                  CONTENTS
  5 .data         00000a0c  200000c0  10002d2c  000040c0  2**4
                  CONTENTS, ALLOC, LOAD, CODE
  6 .uninitialized_data 00000000  20000acc  20000acc  00004b8c  2**0
                  CONTENTS
  7 .scratch_x    00000000  20040000  20040000  00004b8c  2**0
                  CONTENTS
  8 .scratch_y    00000000  20041000  20041000  00004b8c  2**0
                  CONTENTS
  9 .bss          00000418  20000ad0  20000ad0  00004ad0  2**3
                  ALLOC
 10 .heap         00000800  20000ee8  20000ee8  00004b8c  2**2
                  CONTENTS, READONLY
 11 .stack_dummy  00000800  20041000  20041000  000053a0  2**5
                  CONTENTS, READONLY
 12 .ARM.attributes 00000028  00000000  00000000  00005ba0  2**0
                  CONTENTS, READONLY
 13 .comment      000000a7  00000000  00000000  00005bc8  2**0
                  CONTENTS, READONLY
 14 .debug_line   00001661  00000000  00000000  00005c6f  2**0
                  CONTENTS, READONLY, DEBUGGING, OCTETS
 15 .debug_info   0000574a  00000000  00000000  000072d0  2**0
                  CONTENTS, READONLY, DEBUGGING, OCTETS
 16 .debug_abbrev 000012ba  00000000  00000000  0000ca1a  2**0
                  CONTENTS, READONLY, DEBUGGING, OCTETS
 17 .debug_aranges 00000118  00000000  00000000  0000dcd8  2**3
                  CONTENTS, READONLY, DEBUGGING, OCTETS
 18 .debug_str    00000abe  00000000  00000000  0000ddf0  2**0
                  CONTENTS, READONLY, DEBUGGING, OCTETS
 19 .debug_loc    00001653  00000000  00000000  0000e8ae  2**0
                  CONTENTS, READONLY, DEBUGGING, OCTETS
 20 .debug_frame  000001a0  00000000  00000000  0000ff04  2**2
                  CONTENTS, READONLY, DEBUGGING, OCTETS
 21 .debug_ranges 00000038  00000000  00000000  000100a4  2**0
                  CONTENTS, READONLY, DEBUGGING, OCTETS

/home/sammy/rocketry_ground_sensors/BOTR-Ground-Sensor-Array/build/driver/payload.elf:     file format elf32-littlearm


Disassembly of section .boot2:

10000000 <__boot2_start__>:
10000000:	4b32b500 	.word	0x4b32b500
10000004:	60582021 	.word	0x60582021
10000008:	21026898 	.word	0x21026898
1000000c:	60984388 	.word	0x60984388
10000010:	611860d8 	.word	0x611860d8
10000014:	4b2e6158 	.word	0x4b2e6158
10000018:	60992100 	.word	0x60992100
1000001c:	61592102 	.word	0x61592102
10000020:	22f02101 	.word	0x22f02101
10000024:	492b5099 	.word	0x492b5099
10000028:	21016019 	.word	0x21016019
1000002c:	20356099 	.word	0x20356099
10000030:	f844f000 	.word	0xf844f000
10000034:	42902202 	.word	0x42902202
10000038:	2106d014 	.word	0x2106d014
1000003c:	f0006619 	.word	0xf0006619
10000040:	6e19f834 	.word	0x6e19f834
10000044:	66192101 	.word	0x66192101
10000048:	66182000 	.word	0x66182000
1000004c:	f000661a 	.word	0xf000661a
10000050:	6e19f82c 	.word	0x6e19f82c
10000054:	6e196e19 	.word	0x6e196e19
10000058:	f0002005 	.word	0xf0002005
1000005c:	2101f82f 	.word	0x2101f82f
10000060:	d1f94208 	.word	0xd1f94208
10000064:	60992100 	.word	0x60992100
10000068:	6019491b 	.word	0x6019491b
1000006c:	60592100 	.word	0x60592100
10000070:	481b491a 	.word	0x481b491a
10000074:	21016001 	.word	0x21016001
10000078:	21eb6099 	.word	0x21eb6099
1000007c:	21a06619 	.word	0x21a06619
10000080:	f0006619 	.word	0xf0006619
10000084:	2100f812 	.word	0x2100f812
10000088:	49166099 	.word	0x49166099
1000008c:	60014814 	.word	0x60014814
10000090:	60992101 	.word	0x60992101
10000094:	2800bc01 	.word	0x2800bc01
10000098:	4700d000 	.word	0x4700d000
1000009c:	49134812 	.word	0x49134812
100000a0:	c8036008 	.word	0xc8036008
100000a4:	8808f380 	.word	0x8808f380
100000a8:	b5034708 	.word	0xb5034708
100000ac:	20046a99 	.word	0x20046a99
100000b0:	d0fb4201 	.word	0xd0fb4201
100000b4:	42012001 	.word	0x42012001
100000b8:	bd03d1f8 	.word	0xbd03d1f8
100000bc:	6618b502 	.word	0x6618b502
100000c0:	f7ff6618 	.word	0xf7ff6618
100000c4:	6e18fff2 	.word	0x6e18fff2
100000c8:	bd026e18 	.word	0xbd026e18
100000cc:	40020000 	.word	0x40020000
100000d0:	18000000 	.word	0x18000000
100000d4:	00070000 	.word	0x00070000
100000d8:	005f0300 	.word	0x005f0300
100000dc:	00002221 	.word	0x00002221
100000e0:	180000f4 	.word	0x180000f4
100000e4:	a0002022 	.word	0xa0002022
100000e8:	10000100 	.word	0x10000100
100000ec:	e000ed08 	.word	0xe000ed08
	...
100000fc:	7a4eb274 	.word	0x7a4eb274

Disassembly of section .text:

10000100 <__VECTOR_TABLE>:
10000100:	20042000 	.word	0x20042000
10000104:	100001f7 	.word	0x100001f7
10000108:	100001c3 	.word	0x100001c3
1000010c:	100001c5 	.word	0x100001c5
10000110:	100001c1 	.word	0x100001c1
10000114:	100001c1 	.word	0x100001c1
10000118:	100001c1 	.word	0x100001c1
1000011c:	100001c1 	.word	0x100001c1
10000120:	100001c1 	.word	0x100001c1
10000124:	100001c1 	.word	0x100001c1
10000128:	100001c1 	.word	0x100001c1
1000012c:	100001c7 	.word	0x100001c7
10000130:	100001c1 	.word	0x100001c1
10000134:	100001c1 	.word	0x100001c1
10000138:	100001c9 	.word	0x100001c9
1000013c:	100001cb 	.word	0x100001cb
10000140:	100001cd 	.word	0x100001cd
10000144:	100001cd 	.word	0x100001cd
10000148:	100001cd 	.word	0x100001cd
1000014c:	100001cd 	.word	0x100001cd
10000150:	100001cd 	.word	0x100001cd
10000154:	100001cd 	.word	0x100001cd
10000158:	100001cd 	.word	0x100001cd
1000015c:	100001cd 	.word	0x100001cd
10000160:	100001cd 	.word	0x100001cd
10000164:	100001cd 	.word	0x100001cd
10000168:	100001cd 	.word	0x100001cd
1000016c:	100001cd 	.word	0x100001cd
10000170:	100001cd 	.word	0x100001cd
10000174:	100001cd 	.word	0x100001cd
10000178:	100001cd 	.word	0x100001cd
1000017c:	100001cd 	.word	0x100001cd
10000180:	100001cd 	.word	0x100001cd
10000184:	100001cd 	.word	0x100001cd
10000188:	100001cd 	.word	0x100001cd
1000018c:	100001cd 	.word	0x100001cd
10000190:	100001cd 	.word	0x100001cd
10000194:	100001cd 	.word	0x100001cd
10000198:	100001cd 	.word	0x100001cd
1000019c:	100001cd 	.word	0x100001cd
100001a0:	100001cd 	.word	0x100001cd
100001a4:	100001cd 	.word	0x100001cd
100001a8:	100001cd 	.word	0x100001cd
100001ac:	100001cd 	.word	0x100001cd
100001b0:	100001cd 	.word	0x100001cd
100001b4:	100001cd 	.word	0x100001cd
100001b8:	100001cd 	.word	0x100001cd
100001bc:	100001cd 	.word	0x100001cd

100001c0 <isr_invalid>:
100001c0:	be00      	bkpt	0x0000

100001c2 <isr_nmi>:
100001c2:	be00      	bkpt	0x0000

100001c4 <isr_hardfault>:
100001c4:	be00      	bkpt	0x0000

100001c6 <isr_svcall>:
100001c6:	be00      	bkpt	0x0000

100001c8 <isr_pendsv>:
100001c8:	be00      	bkpt	0x0000

100001ca <isr_systick>:
100001ca:	be00      	bkpt	0x0000

100001cc <__unhandled_user_irq>:
100001cc:	f3ef 8005 	mrs	r0, IPSR
100001d0:	3810      	subs	r0, #16

100001d2 <unhandled_user_irq_num_in_r0>:
100001d2:	be00      	bkpt	0x0000

100001d4 <binary_info_header>:
100001d4:	7188ebf2 	.word	0x7188ebf2
100001d8:	10002d08 	.word	0x10002d08
100001dc:	10002d2c 	.word	0x10002d2c
100001e0:	10000234 	.word	0x10000234
100001e4:	e71aa390 	.word	0xe71aa390

100001e8 <_entry_point>:
100001e8:	2000      	movs	r0, #0
100001ea:	491f      	ldr	r1, [pc, #124]	; (10000268 <hold_non_core0_in_bootrom+0xa>)
100001ec:	6008      	str	r0, [r1, #0]
100001ee:	c806      	ldmia	r0!, {r1, r2}
100001f0:	f381 8808 	msr	MSP, r1
100001f4:	4710      	bx	r2

100001f6 <_reset_handler>:
100001f6:	481d      	ldr	r0, [pc, #116]	; (1000026c <hold_non_core0_in_bootrom+0xe>)
100001f8:	6800      	ldr	r0, [r0, #0]
100001fa:	2800      	cmp	r0, #0
100001fc:	d12f      	bne.n	1000025e <hold_non_core0_in_bootrom>
100001fe:	a40d      	add	r4, pc, #52	; (adr r4, 10000234 <data_cpy_table>)
10000200:	cc0e      	ldmia	r4!, {r1, r2, r3}
10000202:	2900      	cmp	r1, #0
10000204:	d002      	beq.n	1000020c <_reset_handler+0x16>
10000206:	f000 f812 	bl	1000022e <data_cpy>
1000020a:	e7f9      	b.n	10000200 <_reset_handler+0xa>
1000020c:	4918      	ldr	r1, [pc, #96]	; (10000270 <hold_non_core0_in_bootrom+0x12>)
1000020e:	4a19      	ldr	r2, [pc, #100]	; (10000274 <hold_non_core0_in_bootrom+0x16>)
10000210:	2000      	movs	r0, #0
10000212:	e000      	b.n	10000216 <bss_fill_test>

10000214 <bss_fill_loop>:
10000214:	c101      	stmia	r1!, {r0}

10000216 <bss_fill_test>:
10000216:	4291      	cmp	r1, r2
10000218:	d1fc      	bne.n	10000214 <bss_fill_loop>

1000021a <platform_entry>:
1000021a:	4917      	ldr	r1, [pc, #92]	; (10000278 <hold_non_core0_in_bootrom+0x1a>)
1000021c:	4788      	blx	r1
1000021e:	4917      	ldr	r1, [pc, #92]	; (1000027c <hold_non_core0_in_bootrom+0x1e>)
10000220:	4788      	blx	r1
10000222:	4917      	ldr	r1, [pc, #92]	; (10000280 <hold_non_core0_in_bootrom+0x22>)
10000224:	4788      	blx	r1
10000226:	be00      	bkpt	0x0000
10000228:	e7fd      	b.n	10000226 <platform_entry+0xc>

1000022a <data_cpy_loop>:
1000022a:	c901      	ldmia	r1!, {r0}
1000022c:	c201      	stmia	r2!, {r0}

1000022e <data_cpy>:
1000022e:	429a      	cmp	r2, r3
10000230:	d3fb      	bcc.n	1000022a <data_cpy_loop>
10000232:	4770      	bx	lr

10000234 <data_cpy_table>:
10000234:	10002d2c 	.word	0x10002d2c
10000238:	200000c0 	.word	0x200000c0
1000023c:	20000acc 	.word	0x20000acc
10000240:	10003738 	.word	0x10003738
10000244:	20040000 	.word	0x20040000
10000248:	20040000 	.word	0x20040000
1000024c:	10003738 	.word	0x10003738
10000250:	20041000 	.word	0x20041000
10000254:	20041000 	.word	0x20041000
10000258:	00000000 	.word	0x00000000
1000025c:	4770      	bx	lr

1000025e <hold_non_core0_in_bootrom>:
1000025e:	4809      	ldr	r0, [pc, #36]	; (10000284 <hold_non_core0_in_bootrom+0x26>)
10000260:	f001 fc82 	bl	10001b68 <rom_func_lookup>
10000264:	4700      	bx	r0
10000266:	0000      	.short	0x0000
10000268:	e000ed08 	.word	0xe000ed08
1000026c:	d0000000 	.word	0xd0000000
10000270:	20000ad0 	.word	0x20000ad0
10000274:	20000ee8 	.word	0x20000ee8
10000278:	100019ad 	.word	0x100019ad
1000027c:	10000355 	.word	0x10000355
10000280:	10001ad5 	.word	0x10001ad5
10000284:	00005657 	.word	0x00005657

10000288 <__bi_50>:
10000288:	50520006 5360b3ab 10002c7c              ..RP..`S|,..

10000294 <__bi_38>:
10000294:	50520006 02031c86 10002c8c              ..RP.....,..

100002a0 <__bi_30>:
100002a0:	50520006 9da22254 10002c94              ..RPT"...,..

100002ac <__bi_22>:
100002ac:	50520005 68f465de 10003738              ..RP.e.h87..

100002b8 <_init>:
100002b8:	b5f8      	push	{r3, r4, r5, r6, r7, lr}
100002ba:	46c0      	nop			; (mov r8, r8)

100002bc <deregister_tm_clones>:
100002bc:	4804      	ldr	r0, [pc, #16]	; (100002d0 <deregister_tm_clones+0x14>)
100002be:	4b05      	ldr	r3, [pc, #20]	; (100002d4 <deregister_tm_clones+0x18>)
100002c0:	b510      	push	{r4, lr}
100002c2:	4283      	cmp	r3, r0
100002c4:	d003      	beq.n	100002ce <deregister_tm_clones+0x12>
100002c6:	4b04      	ldr	r3, [pc, #16]	; (100002d8 <deregister_tm_clones+0x1c>)
100002c8:	2b00      	cmp	r3, #0
100002ca:	d000      	beq.n	100002ce <deregister_tm_clones+0x12>
100002cc:	4798      	blx	r3
100002ce:	bd10      	pop	{r4, pc}
100002d0:	20000acc 	.word	0x20000acc
100002d4:	20000acc 	.word	0x20000acc
100002d8:	00000000 	.word	0x00000000

100002dc <register_tm_clones>:
100002dc:	4806      	ldr	r0, [pc, #24]	; (100002f8 <register_tm_clones+0x1c>)
100002de:	4907      	ldr	r1, [pc, #28]	; (100002fc <register_tm_clones+0x20>)
100002e0:	1a09      	subs	r1, r1, r0
100002e2:	108b      	asrs	r3, r1, #2
100002e4:	0fc9      	lsrs	r1, r1, #31
100002e6:	18c9      	adds	r1, r1, r3
100002e8:	b510      	push	{r4, lr}
100002ea:	1049      	asrs	r1, r1, #1
100002ec:	d003      	beq.n	100002f6 <register_tm_clones+0x1a>
100002ee:	4b04      	ldr	r3, [pc, #16]	; (10000300 <register_tm_clones+0x24>)
100002f0:	2b00      	cmp	r3, #0
100002f2:	d000      	beq.n	100002f6 <register_tm_clones+0x1a>
100002f4:	4798      	blx	r3
100002f6:	bd10      	pop	{r4, pc}
100002f8:	20000acc 	.word	0x20000acc
100002fc:	20000acc 	.word	0x20000acc
10000300:	00000000 	.word	0x00000000

10000304 <__do_global_dtors_aux>:
10000304:	b510      	push	{r4, lr}
10000306:	4c07      	ldr	r4, [pc, #28]	; (10000324 <__do_global_dtors_aux+0x20>)
10000308:	7823      	ldrb	r3, [r4, #0]
1000030a:	2b00      	cmp	r3, #0
1000030c:	d109      	bne.n	10000322 <__do_global_dtors_aux+0x1e>
1000030e:	f7ff ffd5 	bl	100002bc <deregister_tm_clones>
10000312:	4b05      	ldr	r3, [pc, #20]	; (10000328 <__do_global_dtors_aux+0x24>)
10000314:	2b00      	cmp	r3, #0
10000316:	d002      	beq.n	1000031e <__do_global_dtors_aux+0x1a>
10000318:	4804      	ldr	r0, [pc, #16]	; (1000032c <__do_global_dtors_aux+0x28>)
1000031a:	e000      	b.n	1000031e <__do_global_dtors_aux+0x1a>
1000031c:	bf00      	nop
1000031e:	2301      	movs	r3, #1
10000320:	7023      	strb	r3, [r4, #0]
10000322:	bd10      	pop	{r4, pc}
10000324:	20000bd0 	.word	0x20000bd0
10000328:	00000000 	.word	0x00000000
1000032c:	10002c10 	.word	0x10002c10

10000330 <frame_dummy>:
10000330:	4b05      	ldr	r3, [pc, #20]	; (10000348 <frame_dummy+0x18>)
10000332:	b510      	push	{r4, lr}
10000334:	2b00      	cmp	r3, #0
10000336:	d003      	beq.n	10000340 <frame_dummy+0x10>
10000338:	4904      	ldr	r1, [pc, #16]	; (1000034c <frame_dummy+0x1c>)
1000033a:	4805      	ldr	r0, [pc, #20]	; (10000350 <frame_dummy+0x20>)
1000033c:	e000      	b.n	10000340 <frame_dummy+0x10>
1000033e:	bf00      	nop
10000340:	f7ff ffcc 	bl	100002dc <register_tm_clones>
10000344:	bd10      	pop	{r4, pc}
10000346:	46c0      	nop			; (mov r8, r8)
10000348:	00000000 	.word	0x00000000
1000034c:	20000bd4 	.word	0x20000bd4
10000350:	10002c10 	.word	0x10002c10

10000354 <main>:
10000354:	b510      	push	{r4, lr}
10000356:	f001 fea9 	bl	100020ac <stdio_init_all>
1000035a:	f001 ffb7 	bl	100022cc <open_sp_radio>
1000035e:	4804      	ldr	r0, [pc, #16]	; (10000370 <main+0x1c>)
10000360:	f001 ff90 	bl	10002284 <init_sht31d>
10000364:	20fa      	movs	r0, #250	; 0xfa
10000366:	0080      	lsls	r0, r0, #2
10000368:	f000 fd3a 	bl	10000de0 <sleep_ms>
1000036c:	e7fa      	b.n	10000364 <main+0x10>
1000036e:	46c0      	nop			; (mov r8, r8)
10000370:	20000268 	.word	0x20000268

10000374 <gpio_set_function>:
10000374:	4a09      	ldr	r2, [pc, #36]	; (1000039c <gpio_set_function+0x28>)
10000376:	0083      	lsls	r3, r0, #2
10000378:	4694      	mov	ip, r2
1000037a:	2240      	movs	r2, #64	; 0x40
1000037c:	4463      	add	r3, ip
1000037e:	b510      	push	{r4, lr}
10000380:	681c      	ldr	r4, [r3, #0]
10000382:	00c0      	lsls	r0, r0, #3
10000384:	4062      	eors	r2, r4
10000386:	24c0      	movs	r4, #192	; 0xc0
10000388:	4014      	ands	r4, r2
1000038a:	2280      	movs	r2, #128	; 0x80
1000038c:	0152      	lsls	r2, r2, #5
1000038e:	4313      	orrs	r3, r2
10000390:	601c      	str	r4, [r3, #0]
10000392:	4b03      	ldr	r3, [pc, #12]	; (100003a0 <gpio_set_function+0x2c>)
10000394:	469c      	mov	ip, r3
10000396:	4460      	add	r0, ip
10000398:	6041      	str	r1, [r0, #4]
1000039a:	bd10      	pop	{r4, pc}
1000039c:	4001c004 	.word	0x4001c004
100003a0:	40014000 	.word	0x40014000

100003a4 <running_on_fpga>:
100003a4:	4b02      	ldr	r3, [pc, #8]	; (100003b0 <running_on_fpga+0xc>)
100003a6:	6818      	ldr	r0, [r3, #0]
100003a8:	0780      	lsls	r0, r0, #30
100003aa:	0fc0      	lsrs	r0, r0, #31
100003ac:	4770      	bx	lr
100003ae:	46c0      	nop			; (mov r8, r8)
100003b0:	4006c000 	.word	0x4006c000

100003b4 <hw_claim_or_assert>:
100003b4:	b5f8      	push	{r3, r4, r5, r6, r7, lr}
100003b6:	f3ef 8710 	mrs	r7, PRIMASK
100003ba:	b672      	cpsid	i
100003bc:	4e0e      	ldr	r6, [pc, #56]	; (100003f8 <hw_claim_or_assert+0x44>)
100003be:	6833      	ldr	r3, [r6, #0]
100003c0:	2b00      	cmp	r3, #0
100003c2:	d0fc      	beq.n	100003be <hw_claim_or_assert+0xa>
100003c4:	f3bf 8f5f 	dmb	sy
100003c8:	08cb      	lsrs	r3, r1, #3
100003ca:	18c4      	adds	r4, r0, r3
100003cc:	2507      	movs	r5, #7
100003ce:	46a4      	mov	ip, r4
100003d0:	5cc4      	ldrb	r4, [r0, r3]
100003d2:	2301      	movs	r3, #1
100003d4:	400d      	ands	r5, r1
100003d6:	40ab      	lsls	r3, r5
100003d8:	0018      	movs	r0, r3
100003da:	4020      	ands	r0, r4
100003dc:	4223      	tst	r3, r4
100003de:	d108      	bne.n	100003f2 <hw_claim_or_assert+0x3e>
100003e0:	4662      	mov	r2, ip
100003e2:	4323      	orrs	r3, r4
100003e4:	7013      	strb	r3, [r2, #0]
100003e6:	f3bf 8f5f 	dmb	sy
100003ea:	6030      	str	r0, [r6, #0]
100003ec:	f387 8810 	msr	PRIMASK, r7
100003f0:	bdf8      	pop	{r3, r4, r5, r6, r7, pc}
100003f2:	0010      	movs	r0, r2
100003f4:	f001 fb72 	bl	10001adc <panic>
100003f8:	d000012c 	.word	0xd000012c

100003fc <spin_locks_reset>:
100003fc:	2100      	movs	r1, #0
100003fe:	4b04      	ldr	r3, [pc, #16]	; (10000410 <spin_locks_reset+0x14>)
10000400:	4a04      	ldr	r2, [pc, #16]	; (10000414 <spin_locks_reset+0x18>)
10000402:	f3bf 8f5f 	dmb	sy
10000406:	c302      	stmia	r3!, {r1}
10000408:	4293      	cmp	r3, r2
1000040a:	d1fa      	bne.n	10000402 <spin_locks_reset+0x6>
1000040c:	4770      	bx	lr
1000040e:	46c0      	nop			; (mov r8, r8)
10000410:	d0000100 	.word	0xd0000100
10000414:	d0000180 	.word	0xd0000180

10000418 <next_striped_spin_lock_num>:
10000418:	4a04      	ldr	r2, [pc, #16]	; (1000042c <next_striped_spin_lock_num+0x14>)
1000041a:	7810      	ldrb	r0, [r2, #0]
1000041c:	1c43      	adds	r3, r0, #1
1000041e:	b2db      	uxtb	r3, r3
10000420:	2b17      	cmp	r3, #23
10000422:	d900      	bls.n	10000426 <next_striped_spin_lock_num+0xe>
10000424:	2310      	movs	r3, #16
10000426:	7013      	strb	r3, [r2, #0]
10000428:	4770      	bx	lr
1000042a:	46c0      	nop			; (mov r8, r8)
1000042c:	200001b0 	.word	0x200001b0

10000430 <irq_set_enabled>:
10000430:	2301      	movs	r3, #1
10000432:	4083      	lsls	r3, r0
10000434:	2900      	cmp	r1, #0
10000436:	d004      	beq.n	10000442 <irq_set_enabled+0x12>
10000438:	4a03      	ldr	r2, [pc, #12]	; (10000448 <irq_set_enabled+0x18>)
1000043a:	6013      	str	r3, [r2, #0]
1000043c:	4a03      	ldr	r2, [pc, #12]	; (1000044c <irq_set_enabled+0x1c>)
1000043e:	6013      	str	r3, [r2, #0]
10000440:	4770      	bx	lr
10000442:	4a03      	ldr	r2, [pc, #12]	; (10000450 <irq_set_enabled+0x20>)
10000444:	6013      	str	r3, [r2, #0]
10000446:	e7fb      	b.n	10000440 <irq_set_enabled+0x10>
10000448:	e000e280 	.word	0xe000e280
1000044c:	e000e100 	.word	0xe000e100
10000450:	e000e180 	.word	0xe000e180

10000454 <irq_get_vtable_handler>:
10000454:	4b02      	ldr	r3, [pc, #8]	; (10000460 <irq_get_vtable_handler+0xc>)
10000456:	3010      	adds	r0, #16
10000458:	689b      	ldr	r3, [r3, #8]
1000045a:	0080      	lsls	r0, r0, #2
1000045c:	58c0      	ldr	r0, [r0, r3]
1000045e:	4770      	bx	lr
10000460:	e000ed00 	.word	0xe000ed00

10000464 <irq_set_exclusive_handler>:
10000464:	b570      	push	{r4, r5, r6, lr}
10000466:	000d      	movs	r5, r1
10000468:	f3ef 8610 	mrs	r6, PRIMASK
1000046c:	b672      	cpsid	i
1000046e:	4a0f      	ldr	r2, [pc, #60]	; (100004ac <irq_set_exclusive_handler+0x48>)
10000470:	6813      	ldr	r3, [r2, #0]
10000472:	2b00      	cmp	r3, #0
10000474:	d0fc      	beq.n	10000470 <irq_set_exclusive_handler+0xc>
10000476:	f3bf 8f5f 	dmb	sy
1000047a:	4b0d      	ldr	r3, [pc, #52]	; (100004b0 <irq_set_exclusive_handler+0x4c>)
1000047c:	3010      	adds	r0, #16
1000047e:	689b      	ldr	r3, [r3, #8]
10000480:	0084      	lsls	r4, r0, #2
10000482:	591b      	ldr	r3, [r3, r4]
10000484:	4a0b      	ldr	r2, [pc, #44]	; (100004b4 <irq_set_exclusive_handler+0x50>)
10000486:	4293      	cmp	r3, r2
10000488:	d003      	beq.n	10000492 <irq_set_exclusive_handler+0x2e>
1000048a:	429d      	cmp	r5, r3
1000048c:	d001      	beq.n	10000492 <irq_set_exclusive_handler+0x2e>
1000048e:	f001 fb3d 	bl	10001b0c <hard_assertion_failure>
10000492:	4b07      	ldr	r3, [pc, #28]	; (100004b0 <irq_set_exclusive_handler+0x4c>)
10000494:	689b      	ldr	r3, [r3, #8]
10000496:	511d      	str	r5, [r3, r4]
10000498:	f3bf 8f5f 	dmb	sy
1000049c:	f3bf 8f5f 	dmb	sy
100004a0:	2200      	movs	r2, #0
100004a2:	4b02      	ldr	r3, [pc, #8]	; (100004ac <irq_set_exclusive_handler+0x48>)
100004a4:	601a      	str	r2, [r3, #0]
100004a6:	f386 8810 	msr	PRIMASK, r6
100004aa:	bd70      	pop	{r4, r5, r6, pc}
100004ac:	d0000124 	.word	0xd0000124
100004b0:	e000ed00 	.word	0xe000ed00
100004b4:	100001cd 	.word	0x100001cd

100004b8 <irq_remove_handler>:
100004b8:	b5f0      	push	{r4, r5, r6, r7, lr}
100004ba:	46de      	mov	lr, fp
100004bc:	4657      	mov	r7, sl
100004be:	464e      	mov	r6, r9
100004c0:	4645      	mov	r5, r8
100004c2:	b5e0      	push	{r5, r6, r7, lr}
100004c4:	000c      	movs	r4, r1
100004c6:	b083      	sub	sp, #12
100004c8:	f3ef 8910 	mrs	r9, PRIMASK
100004cc:	b672      	cpsid	i
100004ce:	4a59      	ldr	r2, [pc, #356]	; (10000634 <irq_remove_handler+0x17c>)
100004d0:	6813      	ldr	r3, [r2, #0]
100004d2:	2b00      	cmp	r3, #0
100004d4:	d0fc      	beq.n	100004d0 <irq_remove_handler+0x18>
100004d6:	f3bf 8f5f 	dmb	sy
100004da:	4b57      	ldr	r3, [pc, #348]	; (10000638 <irq_remove_handler+0x180>)
100004dc:	689a      	ldr	r2, [r3, #8]
100004de:	0003      	movs	r3, r0
100004e0:	3310      	adds	r3, #16
100004e2:	009f      	lsls	r7, r3, #2
100004e4:	59d5      	ldr	r5, [r2, r7]
100004e6:	4a55      	ldr	r2, [pc, #340]	; (1000063c <irq_remove_handler+0x184>)
100004e8:	4690      	mov	r8, r2
100004ea:	4295      	cmp	r5, r2
100004ec:	d032      	beq.n	10000554 <irq_remove_handler+0x9c>
100004ee:	42a5      	cmp	r5, r4
100004f0:	d043      	beq.n	1000057a <irq_remove_handler+0xc2>
100004f2:	4e53      	ldr	r6, [pc, #332]	; (10000640 <irq_remove_handler+0x188>)
100004f4:	1baa      	subs	r2, r5, r6
100004f6:	2a2f      	cmp	r2, #47	; 0x2f
100004f8:	d82c      	bhi.n	10000554 <irq_remove_handler+0x9c>
100004fa:	2201      	movs	r2, #1
100004fc:	4082      	lsls	r2, r0
100004fe:	4692      	mov	sl, r2
10000500:	4651      	mov	r1, sl
10000502:	4a50      	ldr	r2, [pc, #320]	; (10000644 <irq_remove_handler+0x18c>)
10000504:	6812      	ldr	r2, [r2, #0]
10000506:	4011      	ands	r1, r2
10000508:	9101      	str	r1, [sp, #4]
1000050a:	4651      	mov	r1, sl
1000050c:	4a4e      	ldr	r2, [pc, #312]	; (10000648 <irq_remove_handler+0x190>)
1000050e:	6011      	str	r1, [r2, #0]
10000510:	f3bf 8f5f 	dmb	sy
10000514:	f3ef 8205 	mrs	r2, IPSR
10000518:	4693      	mov	fp, r2
1000051a:	2a00      	cmp	r2, #0
1000051c:	d133      	bne.n	10000586 <irq_remove_handler+0xce>
1000051e:	2301      	movs	r3, #1
10000520:	002a      	movs	r2, r5
10000522:	439a      	bics	r2, r3
10000524:	6893      	ldr	r3, [r2, #8]
10000526:	429c      	cmp	r4, r3
10000528:	d108      	bne.n	1000053c <irq_remove_handler+0x84>
1000052a:	e078      	b.n	1000061e <irq_remove_handler+0x166>
1000052c:	004b      	lsls	r3, r1, #1
1000052e:	185b      	adds	r3, r3, r1
10000530:	009b      	lsls	r3, r3, #2
10000532:	18f3      	adds	r3, r6, r3
10000534:	6899      	ldr	r1, [r3, #8]
10000536:	42a1      	cmp	r1, r4
10000538:	d02a      	beq.n	10000590 <irq_remove_handler+0xd8>
1000053a:	001a      	movs	r2, r3
1000053c:	2106      	movs	r1, #6
1000053e:	5651      	ldrsb	r1, [r2, r1]
10000540:	2900      	cmp	r1, #0
10000542:	daf3      	bge.n	1000052c <irq_remove_handler+0x74>
10000544:	9b01      	ldr	r3, [sp, #4]
10000546:	2b00      	cmp	r3, #0
10000548:	d019      	beq.n	1000057e <irq_remove_handler+0xc6>
1000054a:	4652      	mov	r2, sl
1000054c:	4b3f      	ldr	r3, [pc, #252]	; (1000064c <irq_remove_handler+0x194>)
1000054e:	601a      	str	r2, [r3, #0]
10000550:	4b3c      	ldr	r3, [pc, #240]	; (10000644 <irq_remove_handler+0x18c>)
10000552:	601a      	str	r2, [r3, #0]
10000554:	4b38      	ldr	r3, [pc, #224]	; (10000638 <irq_remove_handler+0x180>)
10000556:	689b      	ldr	r3, [r3, #8]
10000558:	51dd      	str	r5, [r3, r7]
1000055a:	f3bf 8f5f 	dmb	sy
1000055e:	f3bf 8f5f 	dmb	sy
10000562:	2200      	movs	r2, #0
10000564:	4b33      	ldr	r3, [pc, #204]	; (10000634 <irq_remove_handler+0x17c>)
10000566:	601a      	str	r2, [r3, #0]
10000568:	f389 8810 	msr	PRIMASK, r9
1000056c:	b003      	add	sp, #12
1000056e:	bc3c      	pop	{r2, r3, r4, r5}
10000570:	4690      	mov	r8, r2
10000572:	4699      	mov	r9, r3
10000574:	46a2      	mov	sl, r4
10000576:	46ab      	mov	fp, r5
10000578:	bdf0      	pop	{r4, r5, r6, r7, pc}
1000057a:	0015      	movs	r5, r2
1000057c:	e7ea      	b.n	10000554 <irq_remove_handler+0x9c>
1000057e:	4652      	mov	r2, sl
10000580:	4b31      	ldr	r3, [pc, #196]	; (10000648 <irq_remove_handler+0x190>)
10000582:	601a      	str	r2, [r3, #0]
10000584:	e7e6      	b.n	10000554 <irq_remove_handler+0x9c>
10000586:	4293      	cmp	r3, r2
10000588:	d0c9      	beq.n	1000051e <irq_remove_handler+0x66>
1000058a:	f001 fabf 	bl	10001b0c <hard_assertion_failure>
1000058e:	e7c6      	b.n	1000051e <irq_remove_handler+0x66>
10000590:	2106      	movs	r1, #6
10000592:	5659      	ldrsb	r1, [r3, r1]
10000594:	2900      	cmp	r1, #0
10000596:	db22      	blt.n	100005de <irq_remove_handler+0x126>
10000598:	004a      	lsls	r2, r1, #1
1000059a:	1850      	adds	r0, r2, r1
1000059c:	0080      	lsls	r0, r0, #2
1000059e:	1834      	adds	r4, r6, r0
100005a0:	4680      	mov	r8, r0
100005a2:	68a0      	ldr	r0, [r4, #8]
100005a4:	6098      	str	r0, [r3, #8]
100005a6:	79e0      	ldrb	r0, [r4, #7]
100005a8:	71d8      	strb	r0, [r3, #7]
100005aa:	2006      	movs	r0, #6
100005ac:	5620      	ldrsb	r0, [r4, r0]
100005ae:	7198      	strb	r0, [r3, #6]
100005b0:	79a0      	ldrb	r0, [r4, #6]
100005b2:	287f      	cmp	r0, #127	; 0x7f
100005b4:	d824      	bhi.n	10000600 <irq_remove_handler+0x148>
100005b6:	88a4      	ldrh	r4, [r4, #4]
100005b8:	1af0      	subs	r0, r6, r3
100005ba:	0564      	lsls	r4, r4, #21
100005bc:	1524      	asrs	r4, r4, #20
100005be:	4444      	add	r4, r8
100005c0:	1900      	adds	r0, r0, r4
100005c2:	24e0      	movs	r4, #224	; 0xe0
100005c4:	0500      	lsls	r0, r0, #20
100005c6:	0d40      	lsrs	r0, r0, #21
100005c8:	0224      	lsls	r4, r4, #8
100005ca:	4320      	orrs	r0, r4
100005cc:	8098      	strh	r0, [r3, #4]
100005ce:	1852      	adds	r2, r2, r1
100005d0:	4b1f      	ldr	r3, [pc, #124]	; (10000650 <irq_remove_handler+0x198>)
100005d2:	0092      	lsls	r2, r2, #2
100005d4:	18b6      	adds	r6, r6, r2
100005d6:	781a      	ldrb	r2, [r3, #0]
100005d8:	7019      	strb	r1, [r3, #0]
100005da:	71b2      	strb	r2, [r6, #6]
100005dc:	e7b2      	b.n	10000544 <irq_remove_handler+0x8c>
100005de:	4659      	mov	r1, fp
100005e0:	2900      	cmp	r1, #0
100005e2:	d10f      	bne.n	10000604 <irq_remove_handler+0x14c>
100005e4:	31ff      	adds	r1, #255	; 0xff
100005e6:	7191      	strb	r1, [r2, #6]
100005e8:	491a      	ldr	r1, [pc, #104]	; (10000654 <irq_remove_handler+0x19c>)
100005ea:	8091      	strh	r1, [r2, #4]
100005ec:	4918      	ldr	r1, [pc, #96]	; (10000650 <irq_remove_handler+0x198>)
100005ee:	780a      	ldrb	r2, [r1, #0]
100005f0:	719a      	strb	r2, [r3, #6]
100005f2:	4a19      	ldr	r2, [pc, #100]	; (10000658 <irq_remove_handler+0x1a0>)
100005f4:	1b9b      	subs	r3, r3, r6
100005f6:	415b      	adcs	r3, r3
100005f8:	435a      	muls	r2, r3
100005fa:	0d12      	lsrs	r2, r2, #20
100005fc:	700a      	strb	r2, [r1, #0]
100005fe:	e7a1      	b.n	10000544 <irq_remove_handler+0x8c>
10000600:	4816      	ldr	r0, [pc, #88]	; (1000065c <irq_remove_handler+0x1a4>)
10000602:	e7e3      	b.n	100005cc <irq_remove_handler+0x114>
10000604:	4a16      	ldr	r2, [pc, #88]	; (10000660 <irq_remove_handler+0x1a8>)
10000606:	4917      	ldr	r1, [pc, #92]	; (10000664 <irq_remove_handler+0x1ac>)
10000608:	1ad2      	subs	r2, r2, r3
1000060a:	3a08      	subs	r2, #8
1000060c:	0250      	lsls	r0, r2, #9
1000060e:	0d40      	lsrs	r0, r0, #21
10000610:	4301      	orrs	r1, r0
10000612:	8099      	strh	r1, [r3, #4]
10000614:	4914      	ldr	r1, [pc, #80]	; (10000668 <irq_remove_handler+0x1b0>)
10000616:	0852      	lsrs	r2, r2, #1
10000618:	430a      	orrs	r2, r1
1000061a:	80da      	strh	r2, [r3, #6]
1000061c:	e792      	b.n	10000544 <irq_remove_handler+0x8c>
1000061e:	2106      	movs	r1, #6
10000620:	5651      	ldrsb	r1, [r2, r1]
10000622:	0013      	movs	r3, r2
10000624:	2900      	cmp	r1, #0
10000626:	dab7      	bge.n	10000598 <irq_remove_handler+0xe0>
10000628:	465a      	mov	r2, fp
1000062a:	2a00      	cmp	r2, #0
1000062c:	d1ea      	bne.n	10000604 <irq_remove_handler+0x14c>
1000062e:	4645      	mov	r5, r8
10000630:	e7dc      	b.n	100005ec <irq_remove_handler+0x134>
10000632:	46c0      	nop			; (mov r8, r8)
10000634:	d0000124 	.word	0xd0000124
10000638:	e000ed00 	.word	0xe000ed00
1000063c:	100001cd 	.word	0x100001cd
10000640:	200001b4 	.word	0x200001b4
10000644:	e000e100 	.word	0xe000e100
10000648:	e000e180 	.word	0xe000e180
1000064c:	e000e280 	.word	0xe000e280
10000650:	20000cdd 	.word	0x20000cdd
10000654:	ffffbd01 	.word	0xffffbd01
10000658:	0000aaaa 	.word	0x0000aaaa
1000065c:	0000bd01 	.word	0x0000bd01
10000660:	200001ee 	.word	0x200001ee
10000664:	fffff000 	.word	0xfffff000
10000668:	fffff800 	.word	0xfffff800

1000066c <irq_add_tail_to_free_list>:
1000066c:	b5f0      	push	{r4, r5, r6, r7, lr}
1000066e:	f3ef 8105 	mrs	r1, IPSR
10000672:	2401      	movs	r4, #1
10000674:	4304      	orrs	r4, r0
10000676:	f3ef 8610 	mrs	r6, PRIMASK
1000067a:	b672      	cpsid	i
1000067c:	4a21      	ldr	r2, [pc, #132]	; (10000704 <irq_add_tail_to_free_list+0x98>)
1000067e:	6813      	ldr	r3, [r2, #0]
10000680:	2b00      	cmp	r3, #0
10000682:	d0fc      	beq.n	1000067e <irq_add_tail_to_free_list+0x12>
10000684:	f3bf 8f5f 	dmb	sy
10000688:	4b1f      	ldr	r3, [pc, #124]	; (10000708 <irq_add_tail_to_free_list+0x9c>)
1000068a:	0005      	movs	r5, r0
1000068c:	4a1f      	ldr	r2, [pc, #124]	; (1000070c <irq_add_tail_to_free_list+0xa0>)
1000068e:	1aed      	subs	r5, r5, r3
10000690:	416d      	adcs	r5, r5
10000692:	436a      	muls	r2, r5
10000694:	0d12      	lsrs	r2, r2, #20
10000696:	4d1e      	ldr	r5, [pc, #120]	; (10000710 <irq_add_tail_to_free_list+0xa4>)
10000698:	0089      	lsls	r1, r1, #2
1000069a:	68af      	ldr	r7, [r5, #8]
1000069c:	b252      	sxtb	r2, r2
1000069e:	587f      	ldr	r7, [r7, r1]
100006a0:	42a7      	cmp	r7, r4
100006a2:	d01c      	beq.n	100006de <irq_add_tail_to_free_list+0x72>
100006a4:	2106      	movs	r1, #6
100006a6:	5659      	ldrsb	r1, [r3, r1]
100006a8:	4291      	cmp	r1, r2
100006aa:	d01c      	beq.n	100006e6 <irq_add_tail_to_free_list+0x7a>
100006ac:	2112      	movs	r1, #18
100006ae:	5659      	ldrsb	r1, [r3, r1]
100006b0:	4291      	cmp	r1, r2
100006b2:	d022      	beq.n	100006fa <irq_add_tail_to_free_list+0x8e>
100006b4:	211e      	movs	r1, #30
100006b6:	5659      	ldrsb	r1, [r3, r1]
100006b8:	4291      	cmp	r1, r2
100006ba:	d020      	beq.n	100006fe <irq_add_tail_to_free_list+0x92>
100006bc:	212a      	movs	r1, #42	; 0x2a
100006be:	5659      	ldrsb	r1, [r3, r1]
100006c0:	2403      	movs	r4, #3
100006c2:	4291      	cmp	r1, r2
100006c4:	d010      	beq.n	100006e8 <irq_add_tail_to_free_list+0x7c>
100006c6:	4b13      	ldr	r3, [pc, #76]	; (10000714 <irq_add_tail_to_free_list+0xa8>)
100006c8:	7819      	ldrb	r1, [r3, #0]
100006ca:	701a      	strb	r2, [r3, #0]
100006cc:	7181      	strb	r1, [r0, #6]
100006ce:	f3bf 8f5f 	dmb	sy
100006d2:	2200      	movs	r2, #0
100006d4:	4b0b      	ldr	r3, [pc, #44]	; (10000704 <irq_add_tail_to_free_list+0x98>)
100006d6:	601a      	str	r2, [r3, #0]
100006d8:	f386 8810 	msr	PRIMASK, r6
100006dc:	bdf0      	pop	{r4, r5, r6, r7, pc}
100006de:	68ab      	ldr	r3, [r5, #8]
100006e0:	4c0d      	ldr	r4, [pc, #52]	; (10000718 <irq_add_tail_to_free_list+0xac>)
100006e2:	505c      	str	r4, [r3, r1]
100006e4:	e7ef      	b.n	100006c6 <irq_add_tail_to_free_list+0x5a>
100006e6:	2400      	movs	r4, #0
100006e8:	0061      	lsls	r1, r4, #1
100006ea:	1909      	adds	r1, r1, r4
100006ec:	0089      	lsls	r1, r1, #2
100006ee:	185b      	adds	r3, r3, r1
100006f0:	21ff      	movs	r1, #255	; 0xff
100006f2:	7199      	strb	r1, [r3, #6]
100006f4:	4909      	ldr	r1, [pc, #36]	; (1000071c <irq_add_tail_to_free_list+0xb0>)
100006f6:	8099      	strh	r1, [r3, #4]
100006f8:	e7e5      	b.n	100006c6 <irq_add_tail_to_free_list+0x5a>
100006fa:	2401      	movs	r4, #1
100006fc:	e7f4      	b.n	100006e8 <irq_add_tail_to_free_list+0x7c>
100006fe:	2402      	movs	r4, #2
10000700:	e7f2      	b.n	100006e8 <irq_add_tail_to_free_list+0x7c>
10000702:	46c0      	nop			; (mov r8, r8)
10000704:	d0000124 	.word	0xd0000124
10000708:	200001b4 	.word	0x200001b4
1000070c:	0000aaaa 	.word	0x0000aaaa
10000710:	e000ed00 	.word	0xe000ed00
10000714:	20000cdd 	.word	0x20000cdd
10000718:	100001cd 	.word	0x100001cd
1000071c:	ffffbd01 	.word	0xffffbd01

10000720 <irq_init_priorities>:
10000720:	4b05      	ldr	r3, [pc, #20]	; (10000738 <irq_init_priorities+0x18>)
10000722:	4a06      	ldr	r2, [pc, #24]	; (1000073c <irq_init_priorities+0x1c>)
10000724:	6013      	str	r3, [r2, #0]
10000726:	4a06      	ldr	r2, [pc, #24]	; (10000740 <irq_init_priorities+0x20>)
10000728:	6013      	str	r3, [r2, #0]
1000072a:	6053      	str	r3, [r2, #4]
1000072c:	6093      	str	r3, [r2, #8]
1000072e:	60d3      	str	r3, [r2, #12]
10000730:	6113      	str	r3, [r2, #16]
10000732:	6153      	str	r3, [r2, #20]
10000734:	6193      	str	r3, [r2, #24]
10000736:	4770      	bx	lr
10000738:	80808080 	.word	0x80808080
1000073c:	e000e400 	.word	0xe000e400
10000740:	e000e404 	.word	0xe000e404

10000744 <lock_init>:
10000744:	4b02      	ldr	r3, [pc, #8]	; (10000750 <lock_init+0xc>)
10000746:	469c      	mov	ip, r3
10000748:	4461      	add	r1, ip
1000074a:	0089      	lsls	r1, r1, #2
1000074c:	6001      	str	r1, [r0, #0]
1000074e:	4770      	bx	lr
10000750:	34000040 	.word	0x34000040

10000754 <mutex_init>:
10000754:	b510      	push	{r4, lr}
10000756:	0004      	movs	r4, r0
10000758:	f7ff fe5e 	bl	10000418 <next_striped_spin_lock_num>
1000075c:	0001      	movs	r1, r0
1000075e:	0020      	movs	r0, r4
10000760:	f7ff fff0 	bl	10000744 <lock_init>
10000764:	23ff      	movs	r3, #255	; 0xff
10000766:	7123      	strb	r3, [r4, #4]
10000768:	f3bf 8f5f 	dmb	sy
1000076c:	bd10      	pop	{r4, pc}
1000076e:	46c0      	nop			; (mov r8, r8)

10000770 <recursive_mutex_init>:
10000770:	b510      	push	{r4, lr}
10000772:	0004      	movs	r4, r0
10000774:	f7ff fe50 	bl	10000418 <next_striped_spin_lock_num>
10000778:	0001      	movs	r1, r0
1000077a:	0020      	movs	r0, r4
1000077c:	f7ff ffe2 	bl	10000744 <lock_init>
10000780:	23ff      	movs	r3, #255	; 0xff
10000782:	80a3      	strh	r3, [r4, #4]
10000784:	f3bf 8f5f 	dmb	sy
10000788:	bd10      	pop	{r4, pc}
1000078a:	46c0      	nop			; (mov r8, r8)

1000078c <timer_pool_entry_comparator>:
1000078c:	6883      	ldr	r3, [r0, #8]
1000078e:	480b      	ldr	r0, [pc, #44]	; (100007bc <timer_pool_entry_comparator+0x30>)
10000790:	b510      	push	{r4, lr}
10000792:	4684      	mov	ip, r0
10000794:	4461      	add	r1, ip
10000796:	4462      	add	r2, ip
10000798:	0109      	lsls	r1, r1, #4
1000079a:	0112      	lsls	r2, r2, #4
1000079c:	189a      	adds	r2, r3, r2
1000079e:	1859      	adds	r1, r3, r1
100007a0:	6854      	ldr	r4, [r2, #4]
100007a2:	684b      	ldr	r3, [r1, #4]
100007a4:	2001      	movs	r0, #1
100007a6:	429c      	cmp	r4, r3
100007a8:	d801      	bhi.n	100007ae <timer_pool_entry_comparator+0x22>
100007aa:	d002      	beq.n	100007b2 <timer_pool_entry_comparator+0x26>
100007ac:	2000      	movs	r0, #0
100007ae:	b2c0      	uxtb	r0, r0
100007b0:	bd10      	pop	{r4, pc}
100007b2:	6812      	ldr	r2, [r2, #0]
100007b4:	680b      	ldr	r3, [r1, #0]
100007b6:	429a      	cmp	r2, r3
100007b8:	d8f9      	bhi.n	100007ae <timer_pool_entry_comparator+0x22>
100007ba:	e7f7      	b.n	100007ac <timer_pool_entry_comparator+0x20>
100007bc:	0fffffff 	.word	0x0fffffff

100007c0 <sleep_until_callback>:
100007c0:	4b0a      	ldr	r3, [pc, #40]	; (100007ec <sleep_until_callback+0x2c>)
100007c2:	6819      	ldr	r1, [r3, #0]
100007c4:	f3ef 8010 	mrs	r0, PRIMASK
100007c8:	b672      	cpsid	i
100007ca:	680a      	ldr	r2, [r1, #0]
100007cc:	2a00      	cmp	r2, #0
100007ce:	d0fc      	beq.n	100007ca <sleep_until_callback+0xa>
100007d0:	f3bf 8f5f 	dmb	sy
100007d4:	681b      	ldr	r3, [r3, #0]
100007d6:	f3bf 8f5f 	dmb	sy
100007da:	2200      	movs	r2, #0
100007dc:	601a      	str	r2, [r3, #0]
100007de:	f380 8810 	msr	PRIMASK, r0
100007e2:	bf40      	sev
100007e4:	2000      	movs	r0, #0
100007e6:	2100      	movs	r1, #0
100007e8:	4770      	bx	lr
100007ea:	46c0      	nop			; (mov r8, r8)
100007ec:	20000cc4 	.word	0x20000cc4

100007f0 <add_alarm_under_lock>:
100007f0:	b5f8      	push	{r3, r4, r5, r6, r7, lr}
100007f2:	4657      	mov	r7, sl
100007f4:	4645      	mov	r5, r8
100007f6:	464e      	mov	r6, r9
100007f8:	46de      	mov	lr, fp
100007fa:	b5e0      	push	{r5, r6, r7, lr}
100007fc:	4699      	mov	r9, r3
100007fe:	ab0c      	add	r3, sp, #48	; 0x30
10000800:	7819      	ldrb	r1, [r3, #0]
10000802:	ab0d      	add	r3, sp, #52	; 0x34
10000804:	781b      	ldrb	r3, [r3, #0]
10000806:	0005      	movs	r5, r0
10000808:	4690      	mov	r8, r2
1000080a:	469a      	mov	sl, r3
1000080c:	6807      	ldr	r7, [r0, #0]
1000080e:	2900      	cmp	r1, #0
10000810:	d112      	bne.n	10000838 <add_alarm_under_lock+0x48>
10000812:	7bbe      	ldrb	r6, [r7, #14]
10000814:	2e00      	cmp	r6, #0
10000816:	d045      	beq.n	100008a4 <add_alarm_under_lock+0xb4>
10000818:	0074      	lsls	r4, r6, #1
1000081a:	683b      	ldr	r3, [r7, #0]
1000081c:	19a4      	adds	r4, r4, r6
1000081e:	3c03      	subs	r4, #3
10000820:	191b      	adds	r3, r3, r4
10000822:	785a      	ldrb	r2, [r3, #1]
10000824:	0031      	movs	r1, r6
10000826:	73ba      	strb	r2, [r7, #14]
10000828:	2a00      	cmp	r2, #0
1000082a:	d100      	bne.n	1000082e <add_alarm_under_lock+0x3e>
1000082c:	73fa      	strb	r2, [r7, #15]
1000082e:	2200      	movs	r2, #0
10000830:	709a      	strb	r2, [r3, #2]
10000832:	705a      	strb	r2, [r3, #1]
10000834:	701a      	strb	r2, [r3, #0]
10000836:	e003      	b.n	10000840 <add_alarm_under_lock+0x50>
10000838:	000e      	movs	r6, r1
1000083a:	004c      	lsls	r4, r1, #1
1000083c:	1864      	adds	r4, r4, r1
1000083e:	3c03      	subs	r4, #3
10000840:	4b2c      	ldr	r3, [pc, #176]	; (100008f4 <add_alarm_under_lock+0x104>)
10000842:	2200      	movs	r2, #0
10000844:	469c      	mov	ip, r3
10000846:	68ab      	ldr	r3, [r5, #8]
10000848:	4461      	add	r1, ip
1000084a:	469c      	mov	ip, r3
1000084c:	4643      	mov	r3, r8
1000084e:	0109      	lsls	r1, r1, #4
10000850:	4461      	add	r1, ip
10000852:	600b      	str	r3, [r1, #0]
10000854:	464b      	mov	r3, r9
10000856:	604b      	str	r3, [r1, #4]
10000858:	9b0a      	ldr	r3, [sp, #40]	; 0x28
1000085a:	608b      	str	r3, [r1, #8]
1000085c:	9b0b      	ldr	r3, [sp, #44]	; 0x2c
1000085e:	60cb      	str	r3, [r1, #12]
10000860:	683b      	ldr	r3, [r7, #0]
10000862:	191b      	adds	r3, r3, r4
10000864:	709a      	strb	r2, [r3, #2]
10000866:	705a      	strb	r2, [r3, #1]
10000868:	701a      	strb	r2, [r3, #0]
1000086a:	7b7b      	ldrb	r3, [r7, #13]
1000086c:	469b      	mov	fp, r3
1000086e:	2b00      	cmp	r3, #0
10000870:	d02c      	beq.n	100008cc <add_alarm_under_lock+0xdc>
10000872:	0032      	movs	r2, r6
10000874:	4659      	mov	r1, fp
10000876:	68b8      	ldr	r0, [r7, #8]
10000878:	687b      	ldr	r3, [r7, #4]
1000087a:	4798      	blx	r3
1000087c:	683a      	ldr	r2, [r7, #0]
1000087e:	2800      	cmp	r0, #0
10000880:	d017      	beq.n	100008b2 <add_alarm_under_lock+0xc2>
10000882:	465b      	mov	r3, fp
10000884:	4658      	mov	r0, fp
10000886:	005b      	lsls	r3, r3, #1
10000888:	445b      	add	r3, fp
1000088a:	1914      	adds	r4, r2, r4
1000088c:	3b03      	subs	r3, #3
1000088e:	70a0      	strb	r0, [r4, #2]
10000890:	18d1      	adds	r1, r2, r3
10000892:	5cd3      	ldrb	r3, [r2, r3]
10000894:	2b00      	cmp	r3, #0
10000896:	d000      	beq.n	1000089a <add_alarm_under_lock+0xaa>
10000898:	7063      	strb	r3, [r4, #1]
1000089a:	465b      	mov	r3, fp
1000089c:	700e      	strb	r6, [r1, #0]
1000089e:	737b      	strb	r3, [r7, #13]
100008a0:	45b3      	cmp	fp, r6
100008a2:	d014      	beq.n	100008ce <add_alarm_under_lock+0xde>
100008a4:	0030      	movs	r0, r6
100008a6:	bc3c      	pop	{r2, r3, r4, r5}
100008a8:	4690      	mov	r8, r2
100008aa:	4699      	mov	r9, r3
100008ac:	46a2      	mov	sl, r4
100008ae:	46ab      	mov	fp, r5
100008b0:	bdf8      	pop	{r3, r4, r5, r6, r7, pc}
100008b2:	465b      	mov	r3, fp
100008b4:	005b      	lsls	r3, r3, #1
100008b6:	445b      	add	r3, fp
100008b8:	3b03      	subs	r3, #3
100008ba:	18d3      	adds	r3, r2, r3
100008bc:	709e      	strb	r6, [r3, #2]
100008be:	1911      	adds	r1, r2, r4
100008c0:	5d12      	ldrb	r2, [r2, r4]
100008c2:	2a00      	cmp	r2, #0
100008c4:	d000      	beq.n	100008c8 <add_alarm_under_lock+0xd8>
100008c6:	705a      	strb	r2, [r3, #1]
100008c8:	465b      	mov	r3, fp
100008ca:	700b      	strb	r3, [r1, #0]
100008cc:	737e      	strb	r6, [r7, #13]
100008ce:	4642      	mov	r2, r8
100008d0:	464b      	mov	r3, r9
100008d2:	7d28      	ldrb	r0, [r5, #20]
100008d4:	f000 fb98 	bl	10001008 <hardware_alarm_set_target>
100008d8:	1e04      	subs	r4, r0, #0
100008da:	d006      	beq.n	100008ea <add_alarm_under_lock+0xfa>
100008dc:	4653      	mov	r3, sl
100008de:	2b00      	cmp	r3, #0
100008e0:	d103      	bne.n	100008ea <add_alarm_under_lock+0xfa>
100008e2:	0031      	movs	r1, r6
100008e4:	6828      	ldr	r0, [r5, #0]
100008e6:	f000 fddd 	bl	100014a4 <ph_remove_and_free_node>
100008ea:	9b0e      	ldr	r3, [sp, #56]	; 0x38
100008ec:	2b00      	cmp	r3, #0
100008ee:	d0d9      	beq.n	100008a4 <add_alarm_under_lock+0xb4>
100008f0:	701c      	strb	r4, [r3, #0]
100008f2:	e7d7      	b.n	100008a4 <add_alarm_under_lock+0xb4>
100008f4:	0fffffff 	.word	0x0fffffff

100008f8 <alarm_pool_alarm_callback>:
100008f8:	b5f0      	push	{r4, r5, r6, r7, lr}
100008fa:	46de      	mov	lr, fp
100008fc:	4657      	mov	r7, sl
100008fe:	464e      	mov	r6, r9
10000900:	4645      	mov	r5, r8
10000902:	2300      	movs	r3, #0
10000904:	b5e0      	push	{r5, r6, r7, lr}
10000906:	b08b      	sub	sp, #44	; 0x2c
10000908:	9308      	str	r3, [sp, #32]
1000090a:	4b66      	ldr	r3, [pc, #408]	; (10000aa4 <alarm_pool_alarm_callback+0x1ac>)
1000090c:	0082      	lsls	r2, r0, #2
1000090e:	58d4      	ldr	r4, [r2, r3]
10000910:	2300      	movs	r3, #0
10000912:	469b      	mov	fp, r3
10000914:	9009      	str	r0, [sp, #36]	; 0x24
10000916:	f000 fb17 	bl	10000f48 <time_us_64>
1000091a:	6862      	ldr	r2, [r4, #4]
1000091c:	0006      	movs	r6, r0
1000091e:	000f      	movs	r7, r1
10000920:	f3ef 8510 	mrs	r5, PRIMASK
10000924:	b672      	cpsid	i
10000926:	6813      	ldr	r3, [r2, #0]
10000928:	2b00      	cmp	r3, #0
1000092a:	d0fc      	beq.n	10000926 <alarm_pool_alarm_callback+0x2e>
1000092c:	f3bf 8f5f 	dmb	sy
10000930:	6823      	ldr	r3, [r4, #0]
10000932:	469c      	mov	ip, r3
10000934:	7b5b      	ldrb	r3, [r3, #13]
10000936:	4699      	mov	r9, r3
10000938:	2b00      	cmp	r3, #0
1000093a:	d068      	beq.n	10000a0e <alarm_pool_alarm_callback+0x116>
1000093c:	68a2      	ldr	r2, [r4, #8]
1000093e:	4b5a      	ldr	r3, [pc, #360]	; (10000aa8 <alarm_pool_alarm_callback+0x1b0>)
10000940:	4690      	mov	r8, r2
10000942:	444b      	add	r3, r9
10000944:	011b      	lsls	r3, r3, #4
10000946:	4498      	add	r8, r3
10000948:	4643      	mov	r3, r8
1000094a:	681a      	ldr	r2, [r3, #0]
1000094c:	685b      	ldr	r3, [r3, #4]
1000094e:	0010      	movs	r0, r2
10000950:	0019      	movs	r1, r3
10000952:	1b80      	subs	r0, r0, r6
10000954:	41b9      	sbcs	r1, r7
10000956:	2900      	cmp	r1, #0
10000958:	dd63      	ble.n	10000a22 <alarm_pool_alarm_callback+0x12a>
1000095a:	9809      	ldr	r0, [sp, #36]	; 0x24
1000095c:	f000 fb54 	bl	10001008 <hardware_alarm_set_target>
10000960:	2300      	movs	r3, #0
10000962:	2200      	movs	r2, #0
10000964:	4698      	mov	r8, r3
10000966:	2300      	movs	r3, #0
10000968:	9206      	str	r2, [sp, #24]
1000096a:	9307      	str	r3, [sp, #28]
1000096c:	2300      	movs	r3, #0
1000096e:	469a      	mov	sl, r3
10000970:	6863      	ldr	r3, [r4, #4]
10000972:	f3bf 8f5f 	dmb	sy
10000976:	465a      	mov	r2, fp
10000978:	601a      	str	r2, [r3, #0]
1000097a:	f385 8810 	msr	PRIMASK, r5
1000097e:	4653      	mov	r3, sl
10000980:	2b00      	cmp	r3, #0
10000982:	d108      	bne.n	10000996 <alarm_pool_alarm_callback+0x9e>
10000984:	2800      	cmp	r0, #0
10000986:	d1c6      	bne.n	10000916 <alarm_pool_alarm_callback+0x1e>
10000988:	b00b      	add	sp, #44	; 0x2c
1000098a:	bc3c      	pop	{r2, r3, r4, r5}
1000098c:	4690      	mov	r8, r2
1000098e:	4699      	mov	r9, r3
10000990:	46a2      	mov	sl, r4
10000992:	46ab      	mov	fp, r5
10000994:	bdf0      	pop	{r4, r5, r6, r7, pc}
10000996:	9b08      	ldr	r3, [sp, #32]
10000998:	4641      	mov	r1, r8
1000099a:	0218      	lsls	r0, r3, #8
1000099c:	464b      	mov	r3, r9
1000099e:	4318      	orrs	r0, r3
100009a0:	47d0      	blx	sl
100009a2:	6862      	ldr	r2, [r4, #4]
100009a4:	0006      	movs	r6, r0
100009a6:	000f      	movs	r7, r1
100009a8:	f3ef 8510 	mrs	r5, PRIMASK
100009ac:	b672      	cpsid	i
100009ae:	6813      	ldr	r3, [r2, #0]
100009b0:	2b00      	cmp	r3, #0
100009b2:	d0fc      	beq.n	100009ae <alarm_pool_alarm_callback+0xb6>
100009b4:	f3bf 8f5f 	dmb	sy
100009b8:	2f00      	cmp	r7, #0
100009ba:	db4f      	blt.n	10000a5c <alarm_pool_alarm_callback+0x164>
100009bc:	0033      	movs	r3, r6
100009be:	433b      	orrs	r3, r7
100009c0:	d002      	beq.n	100009c8 <alarm_pool_alarm_callback+0xd0>
100009c2:	6923      	ldr	r3, [r4, #16]
100009c4:	2b00      	cmp	r3, #0
100009c6:	d160      	bne.n	10000a8a <alarm_pool_alarm_callback+0x192>
100009c8:	6823      	ldr	r3, [r4, #0]
100009ca:	7bda      	ldrb	r2, [r3, #15]
100009cc:	2a00      	cmp	r2, #0
100009ce:	d007      	beq.n	100009e0 <alarm_pool_alarm_callback+0xe8>
100009d0:	0051      	lsls	r1, r2, #1
100009d2:	188a      	adds	r2, r1, r2
100009d4:	6819      	ldr	r1, [r3, #0]
100009d6:	468c      	mov	ip, r1
100009d8:	4649      	mov	r1, r9
100009da:	4462      	add	r2, ip
100009dc:	3a03      	subs	r2, #3
100009de:	7051      	strb	r1, [r2, #1]
100009e0:	7b9a      	ldrb	r2, [r3, #14]
100009e2:	2a00      	cmp	r2, #0
100009e4:	d101      	bne.n	100009ea <alarm_pool_alarm_callback+0xf2>
100009e6:	464a      	mov	r2, r9
100009e8:	739a      	strb	r2, [r3, #14]
100009ea:	464a      	mov	r2, r9
100009ec:	73da      	strb	r2, [r3, #15]
100009ee:	464b      	mov	r3, r9
100009f0:	68e1      	ldr	r1, [r4, #12]
100009f2:	3b01      	subs	r3, #1
100009f4:	5cca      	ldrb	r2, [r1, r3]
100009f6:	3201      	adds	r2, #1
100009f8:	54ca      	strb	r2, [r1, r3]
100009fa:	465b      	mov	r3, fp
100009fc:	6123      	str	r3, [r4, #16]
100009fe:	6863      	ldr	r3, [r4, #4]
10000a00:	f3bf 8f5f 	dmb	sy
10000a04:	465a      	mov	r2, fp
10000a06:	601a      	str	r2, [r3, #0]
10000a08:	f385 8810 	msr	PRIMASK, r5
10000a0c:	e783      	b.n	10000916 <alarm_pool_alarm_callback+0x1e>
10000a0e:	2300      	movs	r3, #0
10000a10:	2200      	movs	r2, #0
10000a12:	4698      	mov	r8, r3
10000a14:	2300      	movs	r3, #0
10000a16:	9206      	str	r2, [sp, #24]
10000a18:	9307      	str	r3, [sp, #28]
10000a1a:	2300      	movs	r3, #0
10000a1c:	2000      	movs	r0, #0
10000a1e:	469a      	mov	sl, r3
10000a20:	e7a6      	b.n	10000970 <alarm_pool_alarm_callback+0x78>
10000a22:	2900      	cmp	r1, #0
10000a24:	d101      	bne.n	10000a2a <alarm_pool_alarm_callback+0x132>
10000a26:	2800      	cmp	r0, #0
10000a28:	d197      	bne.n	1000095a <alarm_pool_alarm_callback+0x62>
10000a2a:	2100      	movs	r1, #0
10000a2c:	4660      	mov	r0, ip
10000a2e:	f000 fc97 	bl	10001360 <ph_remove_head>
10000a32:	4643      	mov	r3, r8
10000a34:	681a      	ldr	r2, [r3, #0]
10000a36:	685b      	ldr	r3, [r3, #4]
10000a38:	9206      	str	r2, [sp, #24]
10000a3a:	9307      	str	r3, [sp, #28]
10000a3c:	4643      	mov	r3, r8
10000a3e:	689b      	ldr	r3, [r3, #8]
10000a40:	469a      	mov	sl, r3
10000a42:	4643      	mov	r3, r8
10000a44:	68db      	ldr	r3, [r3, #12]
10000a46:	4698      	mov	r8, r3
10000a48:	68e3      	ldr	r3, [r4, #12]
10000a4a:	444b      	add	r3, r9
10000a4c:	3b01      	subs	r3, #1
10000a4e:	781b      	ldrb	r3, [r3, #0]
10000a50:	9308      	str	r3, [sp, #32]
10000a52:	021b      	lsls	r3, r3, #8
10000a54:	4303      	orrs	r3, r0
10000a56:	6123      	str	r3, [r4, #16]
10000a58:	2000      	movs	r0, #0
10000a5a:	e789      	b.n	10000970 <alarm_pool_alarm_callback+0x78>
10000a5c:	6923      	ldr	r3, [r4, #16]
10000a5e:	2b00      	cmp	r3, #0
10000a60:	d0b2      	beq.n	100009c8 <alarm_pool_alarm_callback+0xd0>
10000a62:	9a06      	ldr	r2, [sp, #24]
10000a64:	9b07      	ldr	r3, [sp, #28]
10000a66:	1b92      	subs	r2, r2, r6
10000a68:	41bb      	sbcs	r3, r7
10000a6a:	2b00      	cmp	r3, #0
10000a6c:	db15      	blt.n	10000a9a <alarm_pool_alarm_callback+0x1a2>
10000a6e:	4659      	mov	r1, fp
10000a70:	9104      	str	r1, [sp, #16]
10000a72:	2101      	movs	r1, #1
10000a74:	9103      	str	r1, [sp, #12]
10000a76:	4649      	mov	r1, r9
10000a78:	9102      	str	r1, [sp, #8]
10000a7a:	4641      	mov	r1, r8
10000a7c:	9101      	str	r1, [sp, #4]
10000a7e:	4651      	mov	r1, sl
10000a80:	0020      	movs	r0, r4
10000a82:	9100      	str	r1, [sp, #0]
10000a84:	f7ff feb4 	bl	100007f0 <add_alarm_under_lock>
10000a88:	e7b7      	b.n	100009fa <alarm_pool_alarm_callback+0x102>
10000a8a:	f000 fa5d 	bl	10000f48 <time_us_64>
10000a8e:	0032      	movs	r2, r6
10000a90:	003b      	movs	r3, r7
10000a92:	1812      	adds	r2, r2, r0
10000a94:	414b      	adcs	r3, r1
10000a96:	2b00      	cmp	r3, #0
10000a98:	dae9      	bge.n	10000a6e <alarm_pool_alarm_callback+0x176>
10000a9a:	2201      	movs	r2, #1
10000a9c:	4b03      	ldr	r3, [pc, #12]	; (10000aac <alarm_pool_alarm_callback+0x1b4>)
10000a9e:	4252      	negs	r2, r2
10000aa0:	e7e5      	b.n	10000a6e <alarm_pool_alarm_callback+0x176>
10000aa2:	46c0      	nop			; (mov r8, r8)
10000aa4:	20000cb0 	.word	0x20000cb0
10000aa8:	0fffffff 	.word	0x0fffffff
10000aac:	7fffffff 	.word	0x7fffffff

10000ab0 <alarm_pool_init_default>:
10000ab0:	b510      	push	{r4, lr}
10000ab2:	4c14      	ldr	r4, [pc, #80]	; (10000b04 <alarm_pool_init_default+0x54>)
10000ab4:	6863      	ldr	r3, [r4, #4]
10000ab6:	2b00      	cmp	r3, #0
10000ab8:	d004      	beq.n	10000ac4 <alarm_pool_init_default+0x14>
10000aba:	210a      	movs	r1, #10
10000abc:	4812      	ldr	r0, [pc, #72]	; (10000b08 <alarm_pool_init_default+0x58>)
10000abe:	f7ff fe41 	bl	10000744 <lock_init>
10000ac2:	bd10      	pop	{r4, pc}
10000ac4:	0023      	movs	r3, r4
10000ac6:	4a11      	ldr	r2, [pc, #68]	; (10000b0c <alarm_pool_init_default+0x5c>)
10000ac8:	2110      	movs	r1, #16
10000aca:	6820      	ldr	r0, [r4, #0]
10000acc:	f000 fb62 	bl	10001194 <ph_post_alloc_init>
10000ad0:	2003      	movs	r0, #3
10000ad2:	f000 fa2d 	bl	10000f30 <hardware_alarm_claim>
10000ad6:	2003      	movs	r0, #3
10000ad8:	f000 fb08 	bl	100010ec <hardware_alarm_cancel>
10000adc:	2003      	movs	r0, #3
10000ade:	490c      	ldr	r1, [pc, #48]	; (10000b10 <alarm_pool_init_default+0x60>)
10000ae0:	f000 fa4c 	bl	10000f7c <hardware_alarm_set_callback>
10000ae4:	f7ff fc98 	bl	10000418 <next_striped_spin_lock_num>
10000ae8:	4b0a      	ldr	r3, [pc, #40]	; (10000b14 <alarm_pool_init_default+0x64>)
10000aea:	469c      	mov	ip, r3
10000aec:	2303      	movs	r3, #3
10000aee:	7523      	strb	r3, [r4, #20]
10000af0:	23d0      	movs	r3, #208	; 0xd0
10000af2:	061b      	lsls	r3, r3, #24
10000af4:	681b      	ldr	r3, [r3, #0]
10000af6:	4460      	add	r0, ip
10000af8:	7563      	strb	r3, [r4, #21]
10000afa:	4b07      	ldr	r3, [pc, #28]	; (10000b18 <alarm_pool_init_default+0x68>)
10000afc:	0080      	lsls	r0, r0, #2
10000afe:	6060      	str	r0, [r4, #4]
10000b00:	60dc      	str	r4, [r3, #12]
10000b02:	e7da      	b.n	10000aba <alarm_pool_init_default+0xa>
10000b04:	200001fc 	.word	0x200001fc
10000b08:	20000cc4 	.word	0x20000cc4
10000b0c:	1000078d 	.word	0x1000078d
10000b10:	100008f9 	.word	0x100008f9
10000b14:	34000040 	.word	0x34000040
10000b18:	20000cb0 	.word	0x20000cb0

10000b1c <alarm_pool_add_alarm_at>:
10000b1c:	b5f0      	push	{r4, r5, r6, r7, lr}
10000b1e:	4657      	mov	r7, sl
10000b20:	4645      	mov	r5, r8
10000b22:	46de      	mov	lr, fp
10000b24:	464e      	mov	r6, r9
10000b26:	b5e0      	push	{r5, r6, r7, lr}
10000b28:	b085      	sub	sp, #20
10000b2a:	9301      	str	r3, [sp, #4]
10000b2c:	ab10      	add	r3, sp, #64	; 0x40
10000b2e:	781b      	ldrb	r3, [r3, #0]
10000b30:	2700      	movs	r7, #0
10000b32:	9303      	str	r3, [sp, #12]
10000b34:	2300      	movs	r3, #0
10000b36:	4680      	mov	r8, r0
10000b38:	469a      	mov	sl, r3
10000b3a:	9200      	str	r2, [sp, #0]
10000b3c:	4643      	mov	r3, r8
10000b3e:	685a      	ldr	r2, [r3, #4]
10000b40:	f3ef 8910 	mrs	r9, PRIMASK
10000b44:	b672      	cpsid	i
10000b46:	6813      	ldr	r3, [r2, #0]
10000b48:	2b00      	cmp	r3, #0
10000b4a:	d0fc      	beq.n	10000b46 <alarm_pool_add_alarm_at+0x2a>
10000b4c:	f3bf 8f5f 	dmb	sy
10000b50:	4643      	mov	r3, r8
10000b52:	681d      	ldr	r5, [r3, #0]
10000b54:	7bac      	ldrb	r4, [r5, #14]
10000b56:	2c00      	cmp	r4, #0
10000b58:	d04f      	beq.n	10000bfa <alarm_pool_add_alarm_at+0xde>
10000b5a:	0066      	lsls	r6, r4, #1
10000b5c:	682b      	ldr	r3, [r5, #0]
10000b5e:	1936      	adds	r6, r6, r4
10000b60:	3e03      	subs	r6, #3
10000b62:	199b      	adds	r3, r3, r6
10000b64:	785a      	ldrb	r2, [r3, #1]
10000b66:	73aa      	strb	r2, [r5, #14]
10000b68:	2a00      	cmp	r2, #0
10000b6a:	d100      	bne.n	10000b6e <alarm_pool_add_alarm_at+0x52>
10000b6c:	73ea      	strb	r2, [r5, #15]
10000b6e:	4642      	mov	r2, r8
10000b70:	709f      	strb	r7, [r3, #2]
10000b72:	705f      	strb	r7, [r3, #1]
10000b74:	701f      	strb	r7, [r3, #0]
10000b76:	6892      	ldr	r2, [r2, #8]
10000b78:	4b4a      	ldr	r3, [pc, #296]	; (10000ca4 <alarm_pool_add_alarm_at+0x188>)
10000b7a:	4694      	mov	ip, r2
10000b7c:	9900      	ldr	r1, [sp, #0]
10000b7e:	9a01      	ldr	r2, [sp, #4]
10000b80:	18e3      	adds	r3, r4, r3
10000b82:	011b      	lsls	r3, r3, #4
10000b84:	4463      	add	r3, ip
10000b86:	6019      	str	r1, [r3, #0]
10000b88:	605a      	str	r2, [r3, #4]
10000b8a:	9a0e      	ldr	r2, [sp, #56]	; 0x38
10000b8c:	609a      	str	r2, [r3, #8]
10000b8e:	9a0f      	ldr	r2, [sp, #60]	; 0x3c
10000b90:	60da      	str	r2, [r3, #12]
10000b92:	682b      	ldr	r3, [r5, #0]
10000b94:	199b      	adds	r3, r3, r6
10000b96:	709f      	strb	r7, [r3, #2]
10000b98:	705f      	strb	r7, [r3, #1]
10000b9a:	701f      	strb	r7, [r3, #0]
10000b9c:	7b6b      	ldrb	r3, [r5, #13]
10000b9e:	469b      	mov	fp, r3
10000ba0:	2b00      	cmp	r3, #0
10000ba2:	d046      	beq.n	10000c32 <alarm_pool_add_alarm_at+0x116>
10000ba4:	0022      	movs	r2, r4
10000ba6:	0019      	movs	r1, r3
10000ba8:	68a8      	ldr	r0, [r5, #8]
10000baa:	686b      	ldr	r3, [r5, #4]
10000bac:	4798      	blx	r3
10000bae:	682a      	ldr	r2, [r5, #0]
10000bb0:	2800      	cmp	r0, #0
10000bb2:	d031      	beq.n	10000c18 <alarm_pool_add_alarm_at+0xfc>
10000bb4:	465b      	mov	r3, fp
10000bb6:	4658      	mov	r0, fp
10000bb8:	005b      	lsls	r3, r3, #1
10000bba:	445b      	add	r3, fp
10000bbc:	1996      	adds	r6, r2, r6
10000bbe:	3b03      	subs	r3, #3
10000bc0:	70b0      	strb	r0, [r6, #2]
10000bc2:	18d1      	adds	r1, r2, r3
10000bc4:	5cd3      	ldrb	r3, [r2, r3]
10000bc6:	2b00      	cmp	r3, #0
10000bc8:	d000      	beq.n	10000bcc <alarm_pool_add_alarm_at+0xb0>
10000bca:	7073      	strb	r3, [r6, #1]
10000bcc:	465b      	mov	r3, fp
10000bce:	700c      	strb	r4, [r1, #0]
10000bd0:	736b      	strb	r3, [r5, #13]
10000bd2:	455c      	cmp	r4, fp
10000bd4:	d02e      	beq.n	10000c34 <alarm_pool_add_alarm_at+0x118>
10000bd6:	4643      	mov	r3, r8
10000bd8:	68db      	ldr	r3, [r3, #12]
10000bda:	191b      	adds	r3, r3, r4
10000bdc:	3b01      	subs	r3, #1
10000bde:	7818      	ldrb	r0, [r3, #0]
10000be0:	4643      	mov	r3, r8
10000be2:	685b      	ldr	r3, [r3, #4]
10000be4:	f3bf 8f5f 	dmb	sy
10000be8:	601f      	str	r7, [r3, #0]
10000bea:	f389 8810 	msr	PRIMASK, r9
10000bee:	4653      	mov	r3, sl
10000bf0:	2b00      	cmp	r3, #0
10000bf2:	d12e      	bne.n	10000c52 <alarm_pool_add_alarm_at+0x136>
10000bf4:	0200      	lsls	r0, r0, #8
10000bf6:	4320      	orrs	r0, r4
10000bf8:	e007      	b.n	10000c0a <alarm_pool_add_alarm_at+0xee>
10000bfa:	685b      	ldr	r3, [r3, #4]
10000bfc:	f3bf 8f5f 	dmb	sy
10000c00:	601c      	str	r4, [r3, #0]
10000c02:	f389 8810 	msr	PRIMASK, r9
10000c06:	2001      	movs	r0, #1
10000c08:	4240      	negs	r0, r0
10000c0a:	b005      	add	sp, #20
10000c0c:	bc3c      	pop	{r2, r3, r4, r5}
10000c0e:	4690      	mov	r8, r2
10000c10:	4699      	mov	r9, r3
10000c12:	46a2      	mov	sl, r4
10000c14:	46ab      	mov	fp, r5
10000c16:	bdf0      	pop	{r4, r5, r6, r7, pc}
10000c18:	465b      	mov	r3, fp
10000c1a:	005b      	lsls	r3, r3, #1
10000c1c:	445b      	add	r3, fp
10000c1e:	3b03      	subs	r3, #3
10000c20:	18d3      	adds	r3, r2, r3
10000c22:	709c      	strb	r4, [r3, #2]
10000c24:	1991      	adds	r1, r2, r6
10000c26:	5d92      	ldrb	r2, [r2, r6]
10000c28:	2a00      	cmp	r2, #0
10000c2a:	d000      	beq.n	10000c2e <alarm_pool_add_alarm_at+0x112>
10000c2c:	705a      	strb	r2, [r3, #1]
10000c2e:	465b      	mov	r3, fp
10000c30:	700b      	strb	r3, [r1, #0]
10000c32:	736c      	strb	r4, [r5, #13]
10000c34:	4643      	mov	r3, r8
10000c36:	7d18      	ldrb	r0, [r3, #20]
10000c38:	9a00      	ldr	r2, [sp, #0]
10000c3a:	9b01      	ldr	r3, [sp, #4]
10000c3c:	f000 f9e4 	bl	10001008 <hardware_alarm_set_target>
10000c40:	4682      	mov	sl, r0
10000c42:	2800      	cmp	r0, #0
10000c44:	d0c7      	beq.n	10000bd6 <alarm_pool_add_alarm_at+0xba>
10000c46:	4643      	mov	r3, r8
10000c48:	0021      	movs	r1, r4
10000c4a:	6818      	ldr	r0, [r3, #0]
10000c4c:	f000 fc2a 	bl	100014a4 <ph_remove_and_free_node>
10000c50:	e7c1      	b.n	10000bd6 <alarm_pool_add_alarm_at+0xba>
10000c52:	9b03      	ldr	r3, [sp, #12]
10000c54:	2b00      	cmp	r3, #0
10000c56:	d023      	beq.n	10000ca0 <alarm_pool_add_alarm_at+0x184>
10000c58:	9b0e      	ldr	r3, [sp, #56]	; 0x38
10000c5a:	2000      	movs	r0, #0
10000c5c:	990f      	ldr	r1, [sp, #60]	; 0x3c
10000c5e:	4798      	blx	r3
10000c60:	0003      	movs	r3, r0
10000c62:	0004      	movs	r4, r0
10000c64:	000d      	movs	r5, r1
10000c66:	430b      	orrs	r3, r1
10000c68:	d01a      	beq.n	10000ca0 <alarm_pool_add_alarm_at+0x184>
10000c6a:	2900      	cmp	r1, #0
10000c6c:	da0a      	bge.n	10000c84 <alarm_pool_add_alarm_at+0x168>
10000c6e:	9a00      	ldr	r2, [sp, #0]
10000c70:	9b01      	ldr	r3, [sp, #4]
10000c72:	1b12      	subs	r2, r2, r4
10000c74:	41ab      	sbcs	r3, r5
10000c76:	9200      	str	r2, [sp, #0]
10000c78:	9301      	str	r3, [sp, #4]
10000c7a:	2b00      	cmp	r3, #0
10000c7c:	db0a      	blt.n	10000c94 <alarm_pool_add_alarm_at+0x178>
10000c7e:	9b03      	ldr	r3, [sp, #12]
10000c80:	469a      	mov	sl, r3
10000c82:	e75b      	b.n	10000b3c <alarm_pool_add_alarm_at+0x20>
10000c84:	f000 f960 	bl	10000f48 <time_us_64>
10000c88:	1824      	adds	r4, r4, r0
10000c8a:	414d      	adcs	r5, r1
10000c8c:	9400      	str	r4, [sp, #0]
10000c8e:	9501      	str	r5, [sp, #4]
10000c90:	2d00      	cmp	r5, #0
10000c92:	daf4      	bge.n	10000c7e <alarm_pool_add_alarm_at+0x162>
10000c94:	2301      	movs	r3, #1
10000c96:	4c04      	ldr	r4, [pc, #16]	; (10000ca8 <alarm_pool_add_alarm_at+0x18c>)
10000c98:	425b      	negs	r3, r3
10000c9a:	9300      	str	r3, [sp, #0]
10000c9c:	9401      	str	r4, [sp, #4]
10000c9e:	e7ee      	b.n	10000c7e <alarm_pool_add_alarm_at+0x162>
10000ca0:	2000      	movs	r0, #0
10000ca2:	e7b2      	b.n	10000c0a <alarm_pool_add_alarm_at+0xee>
10000ca4:	0fffffff 	.word	0x0fffffff
10000ca8:	7fffffff 	.word	0x7fffffff

10000cac <alarm_pool_cancel_alarm>:
10000cac:	b570      	push	{r4, r5, r6, lr}
10000cae:	6842      	ldr	r2, [r0, #4]
10000cb0:	0004      	movs	r4, r0
10000cb2:	f3ef 8510 	mrs	r5, PRIMASK
10000cb6:	b672      	cpsid	i
10000cb8:	6813      	ldr	r3, [r2, #0]
10000cba:	2b00      	cmp	r3, #0
10000cbc:	d0fc      	beq.n	10000cb8 <alarm_pool_cancel_alarm+0xc>
10000cbe:	f3bf 8f5f 	dmb	sy
10000cc2:	6820      	ldr	r0, [r4, #0]
10000cc4:	b2ca      	uxtb	r2, r1
10000cc6:	7b43      	ldrb	r3, [r0, #13]
10000cc8:	4293      	cmp	r3, r2
10000cca:	d00a      	beq.n	10000ce2 <alarm_pool_cancel_alarm+0x36>
10000ccc:	23ff      	movs	r3, #255	; 0xff
10000cce:	400b      	ands	r3, r1
10000cd0:	005e      	lsls	r6, r3, #1
10000cd2:	18f3      	adds	r3, r6, r3
10000cd4:	6806      	ldr	r6, [r0, #0]
10000cd6:	46b4      	mov	ip, r6
10000cd8:	4463      	add	r3, ip
10000cda:	3b03      	subs	r3, #3
10000cdc:	789b      	ldrb	r3, [r3, #2]
10000cde:	2b00      	cmp	r3, #0
10000ce0:	d013      	beq.n	10000d0a <alarm_pool_cancel_alarm+0x5e>
10000ce2:	68e6      	ldr	r6, [r4, #12]
10000ce4:	23ff      	movs	r3, #255	; 0xff
10000ce6:	46b4      	mov	ip, r6
10000ce8:	400b      	ands	r3, r1
10000cea:	4463      	add	r3, ip
10000cec:	3b01      	subs	r3, #1
10000cee:	0a09      	lsrs	r1, r1, #8
10000cf0:	781e      	ldrb	r6, [r3, #0]
10000cf2:	b2c9      	uxtb	r1, r1
10000cf4:	428e      	cmp	r6, r1
10000cf6:	d00d      	beq.n	10000d14 <alarm_pool_cancel_alarm+0x68>
10000cf8:	2000      	movs	r0, #0
10000cfa:	6863      	ldr	r3, [r4, #4]
10000cfc:	f3bf 8f5f 	dmb	sy
10000d00:	2200      	movs	r2, #0
10000d02:	601a      	str	r2, [r3, #0]
10000d04:	f385 8810 	msr	PRIMASK, r5
10000d08:	bd70      	pop	{r4, r5, r6, pc}
10000d0a:	6922      	ldr	r2, [r4, #16]
10000d0c:	428a      	cmp	r2, r1
10000d0e:	d1f3      	bne.n	10000cf8 <alarm_pool_cancel_alarm+0x4c>
10000d10:	6123      	str	r3, [r4, #16]
10000d12:	e7f1      	b.n	10000cf8 <alarm_pool_cancel_alarm+0x4c>
10000d14:	0011      	movs	r1, r2
10000d16:	f000 fbc5 	bl	100014a4 <ph_remove_and_free_node>
10000d1a:	e7ee      	b.n	10000cfa <alarm_pool_cancel_alarm+0x4e>

10000d1c <sleep_until>:
10000d1c:	b5f0      	push	{r4, r5, r6, r7, lr}
10000d1e:	0004      	movs	r4, r0
10000d20:	000d      	movs	r5, r1
10000d22:	2606      	movs	r6, #6
10000d24:	4276      	negs	r6, r6
10000d26:	17f7      	asrs	r7, r6, #31
10000d28:	46c6      	mov	lr, r8
10000d2a:	1936      	adds	r6, r6, r4
10000d2c:	416f      	adcs	r7, r5
10000d2e:	b500      	push	{lr}
10000d30:	b084      	sub	sp, #16
10000d32:	428f      	cmp	r7, r1
10000d34:	d814      	bhi.n	10000d60 <sleep_until+0x44>
10000d36:	d011      	beq.n	10000d5c <sleep_until+0x40>
10000d38:	f000 f906 	bl	10000f48 <time_us_64>
10000d3c:	0032      	movs	r2, r6
10000d3e:	003b      	movs	r3, r7
10000d40:	1a12      	subs	r2, r2, r0
10000d42:	418b      	sbcs	r3, r1
10000d44:	2b00      	cmp	r3, #0
10000d46:	dc15      	bgt.n	10000d74 <sleep_until+0x58>
10000d48:	2b00      	cmp	r3, #0
10000d4a:	d03e      	beq.n	10000dca <sleep_until+0xae>
10000d4c:	0020      	movs	r0, r4
10000d4e:	0029      	movs	r1, r5
10000d50:	f000 f904 	bl	10000f5c <busy_wait_until>
10000d54:	b004      	add	sp, #16
10000d56:	bc04      	pop	{r2}
10000d58:	4690      	mov	r8, r2
10000d5a:	bdf0      	pop	{r4, r5, r6, r7, pc}
10000d5c:	4286      	cmp	r6, r0
10000d5e:	d9eb      	bls.n	10000d38 <sleep_until+0x1c>
10000d60:	2600      	movs	r6, #0
10000d62:	2700      	movs	r7, #0
10000d64:	f000 f8f0 	bl	10000f48 <time_us_64>
10000d68:	0032      	movs	r2, r6
10000d6a:	003b      	movs	r3, r7
10000d6c:	1a12      	subs	r2, r2, r0
10000d6e:	418b      	sbcs	r3, r1
10000d70:	2b00      	cmp	r3, #0
10000d72:	dde9      	ble.n	10000d48 <sleep_until+0x2c>
10000d74:	2300      	movs	r3, #0
10000d76:	9302      	str	r3, [sp, #8]
10000d78:	9301      	str	r3, [sp, #4]
10000d7a:	4b15      	ldr	r3, [pc, #84]	; (10000dd0 <sleep_until+0xb4>)
10000d7c:	0032      	movs	r2, r6
10000d7e:	9300      	str	r3, [sp, #0]
10000d80:	4814      	ldr	r0, [pc, #80]	; (10000dd4 <sleep_until+0xb8>)
10000d82:	003b      	movs	r3, r7
10000d84:	f7ff feca 	bl	10000b1c <alarm_pool_add_alarm_at>
10000d88:	2800      	cmp	r0, #0
10000d8a:	dbdf      	blt.n	10000d4c <sleep_until+0x30>
10000d8c:	2300      	movs	r3, #0
10000d8e:	4698      	mov	r8, r3
10000d90:	46bc      	mov	ip, r7
10000d92:	4a11      	ldr	r2, [pc, #68]	; (10000dd8 <sleep_until+0xbc>)
10000d94:	4f11      	ldr	r7, [pc, #68]	; (10000ddc <sleep_until+0xc0>)
10000d96:	6a7b      	ldr	r3, [r7, #36]	; 0x24
10000d98:	459c      	cmp	ip, r3
10000d9a:	d804      	bhi.n	10000da6 <sleep_until+0x8a>
10000d9c:	6ab9      	ldr	r1, [r7, #40]	; 0x28
10000d9e:	428e      	cmp	r6, r1
10000da0:	d9d4      	bls.n	10000d4c <sleep_until+0x30>
10000da2:	459c      	cmp	ip, r3
10000da4:	d1d2      	bne.n	10000d4c <sleep_until+0x30>
10000da6:	6811      	ldr	r1, [r2, #0]
10000da8:	f3ef 8010 	mrs	r0, PRIMASK
10000dac:	b672      	cpsid	i
10000dae:	680b      	ldr	r3, [r1, #0]
10000db0:	2b00      	cmp	r3, #0
10000db2:	d0fc      	beq.n	10000dae <sleep_until+0x92>
10000db4:	f3bf 8f5f 	dmb	sy
10000db8:	6813      	ldr	r3, [r2, #0]
10000dba:	f3bf 8f5f 	dmb	sy
10000dbe:	4641      	mov	r1, r8
10000dc0:	6019      	str	r1, [r3, #0]
10000dc2:	f380 8810 	msr	PRIMASK, r0
10000dc6:	bf20      	wfe
10000dc8:	e7e5      	b.n	10000d96 <sleep_until+0x7a>
10000dca:	2a00      	cmp	r2, #0
10000dcc:	d0be      	beq.n	10000d4c <sleep_until+0x30>
10000dce:	e7d1      	b.n	10000d74 <sleep_until+0x58>
10000dd0:	100007c1 	.word	0x100007c1
10000dd4:	200001fc 	.word	0x200001fc
10000dd8:	20000cc4 	.word	0x20000cc4
10000ddc:	40054000 	.word	0x40054000

10000de0 <sleep_ms>:
10000de0:	b570      	push	{r4, r5, r6, lr}
10000de2:	0006      	movs	r6, r0
10000de4:	f000 f8b0 	bl	10000f48 <time_us_64>
10000de8:	22fa      	movs	r2, #250	; 0xfa
10000dea:	0004      	movs	r4, r0
10000dec:	000d      	movs	r5, r1
10000dee:	2300      	movs	r3, #0
10000df0:	0030      	movs	r0, r6
10000df2:	2100      	movs	r1, #0
10000df4:	0092      	lsls	r2, r2, #2
10000df6:	f000 ff81 	bl	10001cfc <__wrap___aeabi_lmul>
10000dfa:	1900      	adds	r0, r0, r4
10000dfc:	4169      	adcs	r1, r5
10000dfe:	2900      	cmp	r1, #0
10000e00:	db02      	blt.n	10000e08 <sleep_ms+0x28>
10000e02:	f7ff ff8b 	bl	10000d1c <sleep_until>
10000e06:	bd70      	pop	{r4, r5, r6, pc}
10000e08:	2001      	movs	r0, #1
10000e0a:	4901      	ldr	r1, [pc, #4]	; (10000e10 <sleep_ms+0x30>)
10000e0c:	4240      	negs	r0, r0
10000e0e:	e7f8      	b.n	10000e02 <sleep_ms+0x22>
10000e10:	7fffffff 	.word	0x7fffffff

10000e14 <best_effort_wfe_or_timeout>:
10000e14:	b570      	push	{r4, r5, r6, lr}
10000e16:	f3ef 8305 	mrs	r3, IPSR
10000e1a:	0005      	movs	r5, r0
10000e1c:	000c      	movs	r4, r1
10000e1e:	b084      	sub	sp, #16
10000e20:	2b00      	cmp	r3, #0
10000e22:	d00f      	beq.n	10000e44 <best_effort_wfe_or_timeout+0x30>
10000e24:	4b10      	ldr	r3, [pc, #64]	; (10000e68 <best_effort_wfe_or_timeout+0x54>)
10000e26:	2000      	movs	r0, #0
10000e28:	6a59      	ldr	r1, [r3, #36]	; 0x24
10000e2a:	428c      	cmp	r4, r1
10000e2c:	d803      	bhi.n	10000e36 <best_effort_wfe_or_timeout+0x22>
10000e2e:	6a9b      	ldr	r3, [r3, #40]	; 0x28
10000e30:	3001      	adds	r0, #1
10000e32:	42ab      	cmp	r3, r5
10000e34:	d301      	bcc.n	10000e3a <best_effort_wfe_or_timeout+0x26>
10000e36:	b004      	add	sp, #16
10000e38:	bd70      	pop	{r4, r5, r6, pc}
10000e3a:	1a64      	subs	r4, r4, r1
10000e3c:	1e61      	subs	r1, r4, #1
10000e3e:	418c      	sbcs	r4, r1
10000e40:	b2e0      	uxtb	r0, r4
10000e42:	e7f8      	b.n	10000e36 <best_effort_wfe_or_timeout+0x22>
10000e44:	4e09      	ldr	r6, [pc, #36]	; (10000e6c <best_effort_wfe_or_timeout+0x58>)
10000e46:	9302      	str	r3, [sp, #8]
10000e48:	9301      	str	r3, [sp, #4]
10000e4a:	4b09      	ldr	r3, [pc, #36]	; (10000e70 <best_effort_wfe_or_timeout+0x5c>)
10000e4c:	0002      	movs	r2, r0
10000e4e:	9300      	str	r3, [sp, #0]
10000e50:	0030      	movs	r0, r6
10000e52:	000b      	movs	r3, r1
10000e54:	f7ff fe62 	bl	10000b1c <alarm_pool_add_alarm_at>
10000e58:	1e01      	subs	r1, r0, #0
10000e5a:	dde3      	ble.n	10000e24 <best_effort_wfe_or_timeout+0x10>
10000e5c:	bf20      	wfe
10000e5e:	0030      	movs	r0, r6
10000e60:	f7ff ff24 	bl	10000cac <alarm_pool_cancel_alarm>
10000e64:	e7de      	b.n	10000e24 <best_effort_wfe_or_timeout+0x10>
10000e66:	46c0      	nop			; (mov r8, r8)
10000e68:	40054000 	.word	0x40054000
10000e6c:	200001fc 	.word	0x200001fc
10000e70:	100007c1 	.word	0x100007c1

10000e74 <hardware_alarm_irq_handler>:
10000e74:	b5f0      	push	{r4, r5, r6, r7, lr}
10000e76:	f3ef 8205 	mrs	r2, IPSR
10000e7a:	46d6      	mov	lr, sl
10000e7c:	464f      	mov	r7, r9
10000e7e:	4646      	mov	r6, r8
10000e80:	0010      	movs	r0, r2
10000e82:	b5c0      	push	{r6, r7, lr}
10000e84:	3810      	subs	r0, #16
10000e86:	f3ef 8810 	mrs	r8, PRIMASK
10000e8a:	b672      	cpsid	i
10000e8c:	4c21      	ldr	r4, [pc, #132]	; (10000f14 <hardware_alarm_irq_handler+0xa0>)
10000e8e:	6823      	ldr	r3, [r4, #0]
10000e90:	2b00      	cmp	r3, #0
10000e92:	d0fc      	beq.n	10000e8e <hardware_alarm_irq_handler+0x1a>
10000e94:	f3bf 8f5f 	dmb	sy
10000e98:	2301      	movs	r3, #1
10000e9a:	0019      	movs	r1, r3
10000e9c:	4081      	lsls	r1, r0
10000e9e:	4d1e      	ldr	r5, [pc, #120]	; (10000f18 <hardware_alarm_irq_handler+0xa4>)
10000ea0:	001f      	movs	r7, r3
10000ea2:	6369      	str	r1, [r5, #52]	; 0x34
10000ea4:	46aa      	mov	sl, r5
10000ea6:	4d1d      	ldr	r5, [pc, #116]	; (10000f1c <hardware_alarm_irq_handler+0xa8>)
10000ea8:	6029      	str	r1, [r5, #0]
10000eaa:	4d1d      	ldr	r5, [pc, #116]	; (10000f20 <hardware_alarm_irq_handler+0xac>)
10000eac:	782e      	ldrb	r6, [r5, #0]
10000eae:	46ac      	mov	ip, r5
10000eb0:	0035      	movs	r5, r6
10000eb2:	40c5      	lsrs	r5, r0
10000eb4:	402f      	ands	r7, r5
10000eb6:	422b      	tst	r3, r5
10000eb8:	d015      	beq.n	10000ee6 <hardware_alarm_irq_handler+0x72>
10000eba:	4653      	mov	r3, sl
10000ebc:	4d19      	ldr	r5, [pc, #100]	; (10000f24 <hardware_alarm_irq_handler+0xb0>)
10000ebe:	6a5f      	ldr	r7, [r3, #36]	; 0x24
10000ec0:	0083      	lsls	r3, r0, #2
10000ec2:	595d      	ldr	r5, [r3, r5]
10000ec4:	42af      	cmp	r7, r5
10000ec6:	d318      	bcc.n	10000efa <hardware_alarm_irq_handler+0x86>
10000ec8:	4a17      	ldr	r2, [pc, #92]	; (10000f28 <hardware_alarm_irq_handler+0xb4>)
10000eca:	438e      	bics	r6, r1
10000ecc:	589b      	ldr	r3, [r3, r2]
10000ece:	4662      	mov	r2, ip
10000ed0:	7016      	strb	r6, [r2, #0]
10000ed2:	f3bf 8f5f 	dmb	sy
10000ed6:	2200      	movs	r2, #0
10000ed8:	6022      	str	r2, [r4, #0]
10000eda:	f388 8810 	msr	PRIMASK, r8
10000ede:	2b00      	cmp	r3, #0
10000ee0:	d006      	beq.n	10000ef0 <hardware_alarm_irq_handler+0x7c>
10000ee2:	4798      	blx	r3
10000ee4:	e004      	b.n	10000ef0 <hardware_alarm_irq_handler+0x7c>
10000ee6:	f3bf 8f5f 	dmb	sy
10000eea:	6027      	str	r7, [r4, #0]
10000eec:	f388 8810 	msr	PRIMASK, r8
10000ef0:	bc1c      	pop	{r2, r3, r4}
10000ef2:	4690      	mov	r8, r2
10000ef4:	4699      	mov	r9, r3
10000ef6:	46a2      	mov	sl, r4
10000ef8:	bdf0      	pop	{r4, r5, r6, r7, pc}
10000efa:	4b0c      	ldr	r3, [pc, #48]	; (10000f2c <hardware_alarm_irq_handler+0xb8>)
10000efc:	0092      	lsls	r2, r2, #2
10000efe:	469c      	mov	ip, r3
10000f00:	4462      	add	r2, ip
10000f02:	6813      	ldr	r3, [r2, #0]
10000f04:	6013      	str	r3, [r2, #0]
10000f06:	f3bf 8f5f 	dmb	sy
10000f0a:	2300      	movs	r3, #0
10000f0c:	6023      	str	r3, [r4, #0]
10000f0e:	f388 8810 	msr	PRIMASK, r8
10000f12:	e7ed      	b.n	10000ef0 <hardware_alarm_irq_handler+0x7c>
10000f14:	d0000128 	.word	0xd0000128
10000f18:	40054000 	.word	0x40054000
10000f1c:	4005703c 	.word	0x4005703c
10000f20:	20000cde 	.word	0x20000cde
10000f24:	20000cc8 	.word	0x20000cc8
10000f28:	20000c20 	.word	0x20000c20
10000f2c:	40053fd0 	.word	0x40053fd0

10000f30 <hardware_alarm_claim>:
10000f30:	b510      	push	{r4, lr}
10000f32:	0001      	movs	r1, r0
10000f34:	4a02      	ldr	r2, [pc, #8]	; (10000f40 <hardware_alarm_claim+0x10>)
10000f36:	4803      	ldr	r0, [pc, #12]	; (10000f44 <hardware_alarm_claim+0x14>)
10000f38:	f7ff fa3c 	bl	100003b4 <hw_claim_or_assert>
10000f3c:	bd10      	pop	{r4, pc}
10000f3e:	46c0      	nop			; (mov r8, r8)
10000f40:	10002c10 	.word	0x10002c10
10000f44:	20000cdc 	.word	0x20000cdc

10000f48 <time_us_64>:
10000f48:	4b03      	ldr	r3, [pc, #12]	; (10000f58 <time_us_64+0x10>)
10000f4a:	6a59      	ldr	r1, [r3, #36]	; 0x24
10000f4c:	000a      	movs	r2, r1
10000f4e:	6a98      	ldr	r0, [r3, #40]	; 0x28
10000f50:	6a59      	ldr	r1, [r3, #36]	; 0x24
10000f52:	428a      	cmp	r2, r1
10000f54:	d1fa      	bne.n	10000f4c <time_us_64+0x4>
10000f56:	4770      	bx	lr
10000f58:	40054000 	.word	0x40054000

10000f5c <busy_wait_until>:
10000f5c:	4a06      	ldr	r2, [pc, #24]	; (10000f78 <busy_wait_until+0x1c>)
10000f5e:	6a53      	ldr	r3, [r2, #36]	; 0x24
10000f60:	4299      	cmp	r1, r3
10000f62:	d8fc      	bhi.n	10000f5e <busy_wait_until+0x2>
10000f64:	d107      	bne.n	10000f76 <busy_wait_until+0x1a>
10000f66:	4b04      	ldr	r3, [pc, #16]	; (10000f78 <busy_wait_until+0x1c>)
10000f68:	e002      	b.n	10000f70 <busy_wait_until+0x14>
10000f6a:	6a5a      	ldr	r2, [r3, #36]	; 0x24
10000f6c:	4291      	cmp	r1, r2
10000f6e:	d102      	bne.n	10000f76 <busy_wait_until+0x1a>
10000f70:	6a9a      	ldr	r2, [r3, #40]	; 0x28
10000f72:	4282      	cmp	r2, r0
10000f74:	d3f9      	bcc.n	10000f6a <busy_wait_until+0xe>
10000f76:	4770      	bx	lr
10000f78:	40054000 	.word	0x40054000

10000f7c <hardware_alarm_set_callback>:
10000f7c:	b570      	push	{r4, r5, r6, lr}
10000f7e:	0004      	movs	r4, r0
10000f80:	000d      	movs	r5, r1
10000f82:	f3ef 8610 	mrs	r6, PRIMASK
10000f86:	b672      	cpsid	i
10000f88:	4a1a      	ldr	r2, [pc, #104]	; (10000ff4 <hardware_alarm_set_callback+0x78>)
10000f8a:	6813      	ldr	r3, [r2, #0]
10000f8c:	2b00      	cmp	r3, #0
10000f8e:	d0fc      	beq.n	10000f8a <hardware_alarm_set_callback+0xe>
10000f90:	f3bf 8f5f 	dmb	sy
10000f94:	2d00      	cmp	r5, #0
10000f96:	d01b      	beq.n	10000fd0 <hardware_alarm_set_callback+0x54>
10000f98:	0020      	movs	r0, r4
10000f9a:	f7ff fa5b 	bl	10000454 <irq_get_vtable_handler>
10000f9e:	4916      	ldr	r1, [pc, #88]	; (10000ff8 <hardware_alarm_set_callback+0x7c>)
10000fa0:	4281      	cmp	r1, r0
10000fa2:	d00a      	beq.n	10000fba <hardware_alarm_set_callback+0x3e>
10000fa4:	0020      	movs	r0, r4
10000fa6:	f7ff fa5d 	bl	10000464 <irq_set_exclusive_handler>
10000faa:	2101      	movs	r1, #1
10000fac:	0020      	movs	r0, r4
10000fae:	f7ff fa3f 	bl	10000430 <irq_set_enabled>
10000fb2:	2301      	movs	r3, #1
10000fb4:	40a3      	lsls	r3, r4
10000fb6:	4a11      	ldr	r2, [pc, #68]	; (10000ffc <hardware_alarm_set_callback+0x80>)
10000fb8:	6013      	str	r3, [r2, #0]
10000fba:	4b11      	ldr	r3, [pc, #68]	; (10001000 <hardware_alarm_set_callback+0x84>)
10000fbc:	00a4      	lsls	r4, r4, #2
10000fbe:	50e5      	str	r5, [r4, r3]
10000fc0:	f3bf 8f5f 	dmb	sy
10000fc4:	2200      	movs	r2, #0
10000fc6:	4b0b      	ldr	r3, [pc, #44]	; (10000ff4 <hardware_alarm_set_callback+0x78>)
10000fc8:	601a      	str	r2, [r3, #0]
10000fca:	f386 8810 	msr	PRIMASK, r6
10000fce:	bd70      	pop	{r4, r5, r6, pc}
10000fd0:	4b0b      	ldr	r3, [pc, #44]	; (10001000 <hardware_alarm_set_callback+0x84>)
10000fd2:	00a2      	lsls	r2, r4, #2
10000fd4:	50d5      	str	r5, [r2, r3]
10000fd6:	2201      	movs	r2, #1
10000fd8:	40a2      	lsls	r2, r4
10000fda:	490a      	ldr	r1, [pc, #40]	; (10001004 <hardware_alarm_set_callback+0x88>)
10000fdc:	0020      	movs	r0, r4
10000fde:	780b      	ldrb	r3, [r1, #0]
10000fe0:	4393      	bics	r3, r2
10000fe2:	700b      	strb	r3, [r1, #0]
10000fe4:	4904      	ldr	r1, [pc, #16]	; (10000ff8 <hardware_alarm_set_callback+0x7c>)
10000fe6:	f7ff fa67 	bl	100004b8 <irq_remove_handler>
10000fea:	2100      	movs	r1, #0
10000fec:	0020      	movs	r0, r4
10000fee:	f7ff fa1f 	bl	10000430 <irq_set_enabled>
10000ff2:	e7e5      	b.n	10000fc0 <hardware_alarm_set_callback+0x44>
10000ff4:	d0000128 	.word	0xd0000128
10000ff8:	10000e75 	.word	0x10000e75
10000ffc:	40056038 	.word	0x40056038
10001000:	20000c20 	.word	0x20000c20
10001004:	20000cde 	.word	0x20000cde

10001008 <hardware_alarm_set_target>:
10001008:	b5f0      	push	{r4, r5, r6, r7, lr}
1000100a:	464f      	mov	r7, r9
1000100c:	46d6      	mov	lr, sl
1000100e:	4646      	mov	r6, r8
10001010:	b5c0      	push	{r6, r7, lr}
10001012:	0007      	movs	r7, r0
10001014:	4c30      	ldr	r4, [pc, #192]	; (100010d8 <hardware_alarm_set_target+0xd0>)
10001016:	6a61      	ldr	r1, [r4, #36]	; 0x24
10001018:	000d      	movs	r5, r1
1000101a:	6aa6      	ldr	r6, [r4, #40]	; 0x28
1000101c:	6a61      	ldr	r1, [r4, #36]	; 0x24
1000101e:	42a9      	cmp	r1, r5
10001020:	d1fa      	bne.n	10001018 <hardware_alarm_set_target+0x10>
10001022:	428b      	cmp	r3, r1
10001024:	d808      	bhi.n	10001038 <hardware_alarm_set_target+0x30>
10001026:	d005      	beq.n	10001034 <hardware_alarm_set_target+0x2c>
10001028:	2001      	movs	r0, #1
1000102a:	bc1c      	pop	{r2, r3, r4}
1000102c:	4690      	mov	r8, r2
1000102e:	4699      	mov	r9, r3
10001030:	46a2      	mov	sl, r4
10001032:	bdf0      	pop	{r4, r5, r6, r7, pc}
10001034:	42b2      	cmp	r2, r6
10001036:	d9f7      	bls.n	10001028 <hardware_alarm_set_target+0x20>
10001038:	f3ef 8910 	mrs	r9, PRIMASK
1000103c:	b672      	cpsid	i
1000103e:	4827      	ldr	r0, [pc, #156]	; (100010dc <hardware_alarm_set_target+0xd4>)
10001040:	6801      	ldr	r1, [r0, #0]
10001042:	2900      	cmp	r1, #0
10001044:	d0fc      	beq.n	10001040 <hardware_alarm_set_target+0x38>
10001046:	f3bf 8f5f 	dmb	sy
1000104a:	2501      	movs	r5, #1
1000104c:	4924      	ldr	r1, [pc, #144]	; (100010e0 <hardware_alarm_set_target+0xd8>)
1000104e:	40bd      	lsls	r5, r7
10001050:	468c      	mov	ip, r1
10001052:	7809      	ldrb	r1, [r1, #0]
10001054:	4c20      	ldr	r4, [pc, #128]	; (100010d8 <hardware_alarm_set_target+0xd0>)
10001056:	000e      	movs	r6, r1
10001058:	432e      	orrs	r6, r5
1000105a:	4688      	mov	r8, r1
1000105c:	b2f1      	uxtb	r1, r6
1000105e:	468a      	mov	sl, r1
10001060:	4661      	mov	r1, ip
10001062:	4650      	mov	r0, sl
10001064:	7008      	strb	r0, [r1, #0]
10001066:	1d39      	adds	r1, r7, #4
10001068:	481e      	ldr	r0, [pc, #120]	; (100010e4 <hardware_alarm_set_target+0xdc>)
1000106a:	0089      	lsls	r1, r1, #2
1000106c:	6365      	str	r5, [r4, #52]	; 0x34
1000106e:	510a      	str	r2, [r1, r4]
10001070:	00b9      	lsls	r1, r7, #2
10001072:	500b      	str	r3, [r1, r0]
10001074:	6a21      	ldr	r1, [r4, #32]
10001076:	2000      	movs	r0, #0
10001078:	4229      	tst	r1, r5
1000107a:	d019      	beq.n	100010b0 <hardware_alarm_set_target+0xa8>
1000107c:	6a61      	ldr	r1, [r4, #36]	; 0x24
1000107e:	0008      	movs	r0, r1
10001080:	6aa6      	ldr	r6, [r4, #40]	; 0x28
10001082:	6a61      	ldr	r1, [r4, #36]	; 0x24
10001084:	4281      	cmp	r1, r0
10001086:	d1fa      	bne.n	1000107e <hardware_alarm_set_target+0x76>
10001088:	428b      	cmp	r3, r1
1000108a:	d819      	bhi.n	100010c0 <hardware_alarm_set_target+0xb8>
1000108c:	d101      	bne.n	10001092 <hardware_alarm_set_target+0x8a>
1000108e:	42b2      	cmp	r2, r6
10001090:	d816      	bhi.n	100010c0 <hardware_alarm_set_target+0xb8>
10001092:	45c2      	cmp	sl, r8
10001094:	d01d      	beq.n	100010d2 <hardware_alarm_set_target+0xca>
10001096:	4b10      	ldr	r3, [pc, #64]	; (100010d8 <hardware_alarm_set_target+0xd0>)
10001098:	201f      	movs	r0, #31
1000109a:	621d      	str	r5, [r3, #32]
1000109c:	635d      	str	r5, [r3, #52]	; 0x34
1000109e:	2301      	movs	r3, #1
100010a0:	4007      	ands	r7, r0
100010a2:	40bb      	lsls	r3, r7
100010a4:	4a10      	ldr	r2, [pc, #64]	; (100010e8 <hardware_alarm_set_target+0xe0>)
100010a6:	381e      	subs	r0, #30
100010a8:	6013      	str	r3, [r2, #0]
100010aa:	4663      	mov	r3, ip
100010ac:	4642      	mov	r2, r8
100010ae:	701a      	strb	r2, [r3, #0]
100010b0:	f3bf 8f5f 	dmb	sy
100010b4:	2200      	movs	r2, #0
100010b6:	4b09      	ldr	r3, [pc, #36]	; (100010dc <hardware_alarm_set_target+0xd4>)
100010b8:	601a      	str	r2, [r3, #0]
100010ba:	f389 8810 	msr	PRIMASK, r9
100010be:	e7b4      	b.n	1000102a <hardware_alarm_set_target+0x22>
100010c0:	2000      	movs	r0, #0
100010c2:	f3bf 8f5f 	dmb	sy
100010c6:	2200      	movs	r2, #0
100010c8:	4b04      	ldr	r3, [pc, #16]	; (100010dc <hardware_alarm_set_target+0xd4>)
100010ca:	601a      	str	r2, [r3, #0]
100010cc:	f389 8810 	msr	PRIMASK, r9
100010d0:	e7ab      	b.n	1000102a <hardware_alarm_set_target+0x22>
100010d2:	2001      	movs	r0, #1
100010d4:	e7ec      	b.n	100010b0 <hardware_alarm_set_target+0xa8>
100010d6:	46c0      	nop			; (mov r8, r8)
100010d8:	40054000 	.word	0x40054000
100010dc:	d0000128 	.word	0xd0000128
100010e0:	20000cde 	.word	0x20000cde
100010e4:	20000cc8 	.word	0x20000cc8
100010e8:	e000e280 	.word	0xe000e280

100010ec <hardware_alarm_cancel>:
100010ec:	b510      	push	{r4, lr}
100010ee:	f3ef 8410 	mrs	r4, PRIMASK
100010f2:	b672      	cpsid	i
100010f4:	490a      	ldr	r1, [pc, #40]	; (10001120 <hardware_alarm_cancel+0x34>)
100010f6:	680b      	ldr	r3, [r1, #0]
100010f8:	2b00      	cmp	r3, #0
100010fa:	d0fc      	beq.n	100010f6 <hardware_alarm_cancel+0xa>
100010fc:	f3bf 8f5f 	dmb	sy
10001100:	2301      	movs	r3, #1
10001102:	4083      	lsls	r3, r0
10001104:	4a07      	ldr	r2, [pc, #28]	; (10001124 <hardware_alarm_cancel+0x38>)
10001106:	4808      	ldr	r0, [pc, #32]	; (10001128 <hardware_alarm_cancel+0x3c>)
10001108:	6213      	str	r3, [r2, #32]
1000110a:	7802      	ldrb	r2, [r0, #0]
1000110c:	439a      	bics	r2, r3
1000110e:	7002      	strb	r2, [r0, #0]
10001110:	f3bf 8f5f 	dmb	sy
10001114:	2300      	movs	r3, #0
10001116:	600b      	str	r3, [r1, #0]
10001118:	f384 8810 	msr	PRIMASK, r4
1000111c:	bd10      	pop	{r4, pc}
1000111e:	46c0      	nop			; (mov r8, r8)
10001120:	d0000128 	.word	0xd0000128
10001124:	40054000 	.word	0x40054000
10001128:	20000cde 	.word	0x20000cde

1000112c <ph_merge_nodes>:
1000112c:	b570      	push	{r4, r5, r6, lr}
1000112e:	0005      	movs	r5, r0
10001130:	000e      	movs	r6, r1
10001132:	0014      	movs	r4, r2
10001134:	2900      	cmp	r1, #0
10001136:	d024      	beq.n	10001182 <ph_merge_nodes+0x56>
10001138:	2a00      	cmp	r2, #0
1000113a:	d024      	beq.n	10001186 <ph_merge_nodes+0x5a>
1000113c:	6880      	ldr	r0, [r0, #8]
1000113e:	686b      	ldr	r3, [r5, #4]
10001140:	4798      	blx	r3
10001142:	6829      	ldr	r1, [r5, #0]
10001144:	2800      	cmp	r0, #0
10001146:	d00e      	beq.n	10001166 <ph_merge_nodes+0x3a>
10001148:	0063      	lsls	r3, r4, #1
1000114a:	191b      	adds	r3, r3, r4
1000114c:	0072      	lsls	r2, r6, #1
1000114e:	3b03      	subs	r3, #3
10001150:	1992      	adds	r2, r2, r6
10001152:	18cb      	adds	r3, r1, r3
10001154:	3a03      	subs	r2, #3
10001156:	709e      	strb	r6, [r3, #2]
10001158:	1888      	adds	r0, r1, r2
1000115a:	5c8a      	ldrb	r2, [r1, r2]
1000115c:	2a00      	cmp	r2, #0
1000115e:	d114      	bne.n	1000118a <ph_merge_nodes+0x5e>
10001160:	7004      	strb	r4, [r0, #0]
10001162:	0030      	movs	r0, r6
10001164:	e00e      	b.n	10001184 <ph_merge_nodes+0x58>
10001166:	0073      	lsls	r3, r6, #1
10001168:	199b      	adds	r3, r3, r6
1000116a:	0062      	lsls	r2, r4, #1
1000116c:	3b03      	subs	r3, #3
1000116e:	1912      	adds	r2, r2, r4
10001170:	18cb      	adds	r3, r1, r3
10001172:	3a03      	subs	r2, #3
10001174:	709c      	strb	r4, [r3, #2]
10001176:	1888      	adds	r0, r1, r2
10001178:	5c8a      	ldrb	r2, [r1, r2]
1000117a:	2a00      	cmp	r2, #0
1000117c:	d000      	beq.n	10001180 <ph_merge_nodes+0x54>
1000117e:	705a      	strb	r2, [r3, #1]
10001180:	7006      	strb	r6, [r0, #0]
10001182:	0020      	movs	r0, r4
10001184:	bd70      	pop	{r4, r5, r6, pc}
10001186:	0008      	movs	r0, r1
10001188:	e7fc      	b.n	10001184 <ph_merge_nodes+0x58>
1000118a:	705a      	strb	r2, [r3, #1]
1000118c:	7004      	strb	r4, [r0, #0]
1000118e:	0030      	movs	r0, r6
10001190:	e7f8      	b.n	10001184 <ph_merge_nodes+0x58>
10001192:	46c0      	nop			; (mov r8, r8)

10001194 <ph_post_alloc_init>:
10001194:	b530      	push	{r4, r5, lr}
10001196:	6083      	str	r3, [r0, #8]
10001198:	2300      	movs	r3, #0
1000119a:	b2cc      	uxtb	r4, r1
1000119c:	7343      	strb	r3, [r0, #13]
1000119e:	3301      	adds	r3, #1
100011a0:	7304      	strb	r4, [r0, #12]
100011a2:	6042      	str	r2, [r0, #4]
100011a4:	7383      	strb	r3, [r0, #14]
100011a6:	73c4      	strb	r4, [r0, #15]
100011a8:	000d      	movs	r5, r1
100011aa:	6800      	ldr	r0, [r0, #0]
100011ac:	2c01      	cmp	r4, #1
100011ae:	d906      	bls.n	100011be <ph_post_alloc_init+0x2a>
100011b0:	1c42      	adds	r2, r0, #1
100011b2:	3301      	adds	r3, #1
100011b4:	b2db      	uxtb	r3, r3
100011b6:	7013      	strb	r3, [r2, #0]
100011b8:	3203      	adds	r2, #3
100011ba:	429c      	cmp	r4, r3
100011bc:	d1f9      	bne.n	100011b2 <ph_post_alloc_init+0x1e>
100011be:	21ff      	movs	r1, #255	; 0xff
100011c0:	4029      	ands	r1, r5
100011c2:	004b      	lsls	r3, r1, #1
100011c4:	1859      	adds	r1, r3, r1
100011c6:	2300      	movs	r3, #0
100011c8:	1840      	adds	r0, r0, r1
100011ca:	3803      	subs	r0, #3
100011cc:	7043      	strb	r3, [r0, #1]
100011ce:	bd30      	pop	{r4, r5, pc}

100011d0 <ph_merge_two_pass>:
100011d0:	b5f8      	push	{r3, r4, r5, r6, r7, lr}
100011d2:	46ce      	mov	lr, r9
100011d4:	4647      	mov	r7, r8
100011d6:	0006      	movs	r6, r0
100011d8:	000c      	movs	r4, r1
100011da:	b580      	push	{r7, lr}
100011dc:	2900      	cmp	r1, #0
100011de:	d007      	beq.n	100011f0 <ph_merge_two_pass+0x20>
100011e0:	004d      	lsls	r5, r1, #1
100011e2:	6803      	ldr	r3, [r0, #0]
100011e4:	186d      	adds	r5, r5, r1
100011e6:	3d03      	subs	r5, #3
100011e8:	195a      	adds	r2, r3, r5
100011ea:	7857      	ldrb	r7, [r2, #1]
100011ec:	2f00      	cmp	r7, #0
100011ee:	d104      	bne.n	100011fa <ph_merge_two_pass+0x2a>
100011f0:	0020      	movs	r0, r4
100011f2:	bc0c      	pop	{r2, r3}
100011f4:	4690      	mov	r8, r2
100011f6:	4699      	mov	r9, r3
100011f8:	bdf8      	pop	{r3, r4, r5, r6, r7, pc}
100011fa:	0079      	lsls	r1, r7, #1
100011fc:	19c9      	adds	r1, r1, r7
100011fe:	3903      	subs	r1, #3
10001200:	4688      	mov	r8, r1
10001202:	4443      	add	r3, r8
10001204:	7859      	ldrb	r1, [r3, #1]
10001206:	4689      	mov	r9, r1
10001208:	2100      	movs	r1, #0
1000120a:	7059      	strb	r1, [r3, #1]
1000120c:	7051      	strb	r1, [r2, #1]
1000120e:	6873      	ldr	r3, [r6, #4]
10001210:	003a      	movs	r2, r7
10001212:	0021      	movs	r1, r4
10001214:	6880      	ldr	r0, [r0, #8]
10001216:	4798      	blx	r3
10001218:	6833      	ldr	r3, [r6, #0]
1000121a:	2800      	cmp	r0, #0
1000121c:	d014      	beq.n	10001248 <ph_merge_two_pass+0x78>
1000121e:	4642      	mov	r2, r8
10001220:	189a      	adds	r2, r3, r2
10001222:	7094      	strb	r4, [r2, #2]
10001224:	1959      	adds	r1, r3, r5
10001226:	5d5b      	ldrb	r3, [r3, r5]
10001228:	2b00      	cmp	r3, #0
1000122a:	d000      	beq.n	1000122e <ph_merge_two_pass+0x5e>
1000122c:	7053      	strb	r3, [r2, #1]
1000122e:	700f      	strb	r7, [r1, #0]
10001230:	0027      	movs	r7, r4
10001232:	4649      	mov	r1, r9
10001234:	0030      	movs	r0, r6
10001236:	f7ff ffcb 	bl	100011d0 <ph_merge_two_pass>
1000123a:	0039      	movs	r1, r7
1000123c:	0002      	movs	r2, r0
1000123e:	0030      	movs	r0, r6
10001240:	f7ff ff74 	bl	1000112c <ph_merge_nodes>
10001244:	0004      	movs	r4, r0
10001246:	e7d3      	b.n	100011f0 <ph_merge_two_pass+0x20>
10001248:	4642      	mov	r2, r8
1000124a:	4641      	mov	r1, r8
1000124c:	195d      	adds	r5, r3, r5
1000124e:	70af      	strb	r7, [r5, #2]
10001250:	189a      	adds	r2, r3, r2
10001252:	5c5b      	ldrb	r3, [r3, r1]
10001254:	2b00      	cmp	r3, #0
10001256:	d000      	beq.n	1000125a <ph_merge_two_pass+0x8a>
10001258:	706b      	strb	r3, [r5, #1]
1000125a:	7014      	strb	r4, [r2, #0]
1000125c:	e7e9      	b.n	10001232 <ph_merge_two_pass+0x62>
1000125e:	46c0      	nop			; (mov r8, r8)

10001260 <ph_remove_any_head>:
10001260:	b5f0      	push	{r4, r5, r6, r7, lr}
10001262:	4657      	mov	r7, sl
10001264:	4645      	mov	r5, r8
10001266:	46de      	mov	lr, fp
10001268:	464e      	mov	r6, r9
1000126a:	b5e0      	push	{r5, r6, r7, lr}
1000126c:	000d      	movs	r5, r1
1000126e:	006b      	lsls	r3, r5, #1
10001270:	6801      	ldr	r1, [r0, #0]
10001272:	195b      	adds	r3, r3, r5
10001274:	1edf      	subs	r7, r3, #3
10001276:	0004      	movs	r4, r0
10001278:	5dc8      	ldrb	r0, [r1, r7]
1000127a:	b083      	sub	sp, #12
1000127c:	9201      	str	r2, [sp, #4]
1000127e:	19ca      	adds	r2, r1, r7
10001280:	2800      	cmp	r0, #0
10001282:	d050      	beq.n	10001326 <ph_remove_any_head+0xc6>
10001284:	0043      	lsls	r3, r0, #1
10001286:	181b      	adds	r3, r3, r0
10001288:	3b03      	subs	r3, #3
1000128a:	18cb      	adds	r3, r1, r3
1000128c:	785e      	ldrb	r6, [r3, #1]
1000128e:	46b4      	mov	ip, r6
10001290:	2e00      	cmp	r6, #0
10001292:	d11a      	bne.n	100012ca <ph_remove_any_head+0x6a>
10001294:	9e01      	ldr	r6, [sp, #4]
10001296:	2e00      	cmp	r6, #0
10001298:	d042      	beq.n	10001320 <ph_remove_any_head+0xc0>
1000129a:	7be6      	ldrb	r6, [r4, #15]
1000129c:	2e00      	cmp	r6, #0
1000129e:	d004      	beq.n	100012aa <ph_remove_any_head+0x4a>
100012a0:	0073      	lsls	r3, r6, #1
100012a2:	199b      	adds	r3, r3, r6
100012a4:	18cb      	adds	r3, r1, r3
100012a6:	3b03      	subs	r3, #3
100012a8:	705d      	strb	r5, [r3, #1]
100012aa:	7ba3      	ldrb	r3, [r4, #14]
100012ac:	2b00      	cmp	r3, #0
100012ae:	d100      	bne.n	100012b2 <ph_remove_any_head+0x52>
100012b0:	73a5      	strb	r5, [r4, #14]
100012b2:	73e5      	strb	r5, [r4, #15]
100012b4:	2800      	cmp	r0, #0
100012b6:	d12f      	bne.n	10001318 <ph_remove_any_head+0xb8>
100012b8:	2300      	movs	r3, #0
100012ba:	7053      	strb	r3, [r2, #1]
100012bc:	b003      	add	sp, #12
100012be:	bc3c      	pop	{r2, r3, r4, r5}
100012c0:	4690      	mov	r8, r2
100012c2:	4699      	mov	r9, r3
100012c4:	46a2      	mov	sl, r4
100012c6:	46ab      	mov	fp, r5
100012c8:	bdf0      	pop	{r4, r5, r6, r7, pc}
100012ca:	0072      	lsls	r2, r6, #1
100012cc:	4462      	add	r2, ip
100012ce:	3a03      	subs	r2, #3
100012d0:	1889      	adds	r1, r1, r2
100012d2:	784a      	ldrb	r2, [r1, #1]
100012d4:	4690      	mov	r8, r2
100012d6:	2200      	movs	r2, #0
100012d8:	704a      	strb	r2, [r1, #1]
100012da:	4691      	mov	r9, r2
100012dc:	705a      	strb	r2, [r3, #1]
100012de:	0001      	movs	r1, r0
100012e0:	0032      	movs	r2, r6
100012e2:	0020      	movs	r0, r4
100012e4:	f7ff ff22 	bl	1000112c <ph_merge_nodes>
100012e8:	4643      	mov	r3, r8
100012ea:	4682      	mov	sl, r0
100012ec:	2b00      	cmp	r3, #0
100012ee:	d007      	beq.n	10001300 <ph_remove_any_head+0xa0>
100012f0:	005b      	lsls	r3, r3, #1
100012f2:	6821      	ldr	r1, [r4, #0]
100012f4:	4443      	add	r3, r8
100012f6:	3b03      	subs	r3, #3
100012f8:	18cb      	adds	r3, r1, r3
100012fa:	785a      	ldrb	r2, [r3, #1]
100012fc:	2a00      	cmp	r2, #0
100012fe:	d116      	bne.n	1000132e <ph_remove_any_head+0xce>
10001300:	4642      	mov	r2, r8
10001302:	4651      	mov	r1, sl
10001304:	0020      	movs	r0, r4
10001306:	f7ff ff11 	bl	1000112c <ph_merge_nodes>
1000130a:	6821      	ldr	r1, [r4, #0]
1000130c:	9b01      	ldr	r3, [sp, #4]
1000130e:	19ca      	adds	r2, r1, r7
10001310:	2b00      	cmp	r3, #0
10001312:	d1c2      	bne.n	1000129a <ph_remove_any_head+0x3a>
10001314:	2800      	cmp	r0, #0
10001316:	d0cf      	beq.n	100012b8 <ph_remove_any_head+0x58>
10001318:	0043      	lsls	r3, r0, #1
1000131a:	181b      	adds	r3, r3, r0
1000131c:	3b03      	subs	r3, #3
1000131e:	18cb      	adds	r3, r1, r3
10001320:	2100      	movs	r1, #0
10001322:	7099      	strb	r1, [r3, #2]
10001324:	e7c8      	b.n	100012b8 <ph_remove_any_head+0x58>
10001326:	9b01      	ldr	r3, [sp, #4]
10001328:	2b00      	cmp	r3, #0
1000132a:	d1b6      	bne.n	1000129a <ph_remove_any_head+0x3a>
1000132c:	e7c4      	b.n	100012b8 <ph_remove_any_head+0x58>
1000132e:	0050      	lsls	r0, r2, #1
10001330:	1880      	adds	r0, r0, r2
10001332:	3803      	subs	r0, #3
10001334:	1809      	adds	r1, r1, r0
10001336:	7848      	ldrb	r0, [r1, #1]
10001338:	4683      	mov	fp, r0
1000133a:	4648      	mov	r0, r9
1000133c:	7048      	strb	r0, [r1, #1]
1000133e:	7058      	strb	r0, [r3, #1]
10001340:	4641      	mov	r1, r8
10001342:	0020      	movs	r0, r4
10001344:	f7ff fef2 	bl	1000112c <ph_merge_nodes>
10001348:	4659      	mov	r1, fp
1000134a:	4680      	mov	r8, r0
1000134c:	0020      	movs	r0, r4
1000134e:	f7ff ff3f 	bl	100011d0 <ph_merge_two_pass>
10001352:	4641      	mov	r1, r8
10001354:	0002      	movs	r2, r0
10001356:	0020      	movs	r0, r4
10001358:	f7ff fee8 	bl	1000112c <ph_merge_nodes>
1000135c:	4680      	mov	r8, r0
1000135e:	e7cf      	b.n	10001300 <ph_remove_any_head+0xa0>

10001360 <ph_remove_head>:
10001360:	b5f0      	push	{r4, r5, r6, r7, lr}
10001362:	464e      	mov	r6, r9
10001364:	4645      	mov	r5, r8
10001366:	46de      	mov	lr, fp
10001368:	4657      	mov	r7, sl
1000136a:	b5e0      	push	{r5, r6, r7, lr}
1000136c:	7b46      	ldrb	r6, [r0, #13]
1000136e:	0004      	movs	r4, r0
10001370:	0075      	lsls	r5, r6, #1
10001372:	6800      	ldr	r0, [r0, #0]
10001374:	19ad      	adds	r5, r5, r6
10001376:	3d03      	subs	r5, #3
10001378:	b083      	sub	sp, #12
1000137a:	9101      	str	r1, [sp, #4]
1000137c:	5d41      	ldrb	r1, [r0, r5]
1000137e:	1942      	adds	r2, r0, r5
10001380:	2900      	cmp	r1, #0
10001382:	d052      	beq.n	1000142a <ph_remove_head+0xca>
10001384:	004b      	lsls	r3, r1, #1
10001386:	185b      	adds	r3, r3, r1
10001388:	3b03      	subs	r3, #3
1000138a:	18c3      	adds	r3, r0, r3
1000138c:	785f      	ldrb	r7, [r3, #1]
1000138e:	46bc      	mov	ip, r7
10001390:	2f00      	cmp	r7, #0
10001392:	d11c      	bne.n	100013ce <ph_remove_head+0x6e>
10001394:	9d01      	ldr	r5, [sp, #4]
10001396:	2d00      	cmp	r5, #0
10001398:	d044      	beq.n	10001424 <ph_remove_head+0xc4>
1000139a:	7be5      	ldrb	r5, [r4, #15]
1000139c:	2d00      	cmp	r5, #0
1000139e:	d004      	beq.n	100013aa <ph_remove_head+0x4a>
100013a0:	006b      	lsls	r3, r5, #1
100013a2:	195b      	adds	r3, r3, r5
100013a4:	18c3      	adds	r3, r0, r3
100013a6:	3b03      	subs	r3, #3
100013a8:	705e      	strb	r6, [r3, #1]
100013aa:	7ba3      	ldrb	r3, [r4, #14]
100013ac:	2b00      	cmp	r3, #0
100013ae:	d100      	bne.n	100013b2 <ph_remove_head+0x52>
100013b0:	73a6      	strb	r6, [r4, #14]
100013b2:	73e6      	strb	r6, [r4, #15]
100013b4:	2900      	cmp	r1, #0
100013b6:	d131      	bne.n	1000141c <ph_remove_head+0xbc>
100013b8:	2300      	movs	r3, #0
100013ba:	0030      	movs	r0, r6
100013bc:	7053      	strb	r3, [r2, #1]
100013be:	7361      	strb	r1, [r4, #13]
100013c0:	b003      	add	sp, #12
100013c2:	bc3c      	pop	{r2, r3, r4, r5}
100013c4:	4690      	mov	r8, r2
100013c6:	4699      	mov	r9, r3
100013c8:	46a2      	mov	sl, r4
100013ca:	46ab      	mov	fp, r5
100013cc:	bdf0      	pop	{r4, r5, r6, r7, pc}
100013ce:	007a      	lsls	r2, r7, #1
100013d0:	4462      	add	r2, ip
100013d2:	3a03      	subs	r2, #3
100013d4:	1880      	adds	r0, r0, r2
100013d6:	7842      	ldrb	r2, [r0, #1]
100013d8:	4693      	mov	fp, r2
100013da:	2200      	movs	r2, #0
100013dc:	7042      	strb	r2, [r0, #1]
100013de:	4691      	mov	r9, r2
100013e0:	705a      	strb	r2, [r3, #1]
100013e2:	0020      	movs	r0, r4
100013e4:	003a      	movs	r2, r7
100013e6:	f7ff fea1 	bl	1000112c <ph_merge_nodes>
100013ea:	465b      	mov	r3, fp
100013ec:	4680      	mov	r8, r0
100013ee:	2b00      	cmp	r3, #0
100013f0:	d007      	beq.n	10001402 <ph_remove_head+0xa2>
100013f2:	005b      	lsls	r3, r3, #1
100013f4:	6821      	ldr	r1, [r4, #0]
100013f6:	445b      	add	r3, fp
100013f8:	3b03      	subs	r3, #3
100013fa:	18cb      	adds	r3, r1, r3
100013fc:	785a      	ldrb	r2, [r3, #1]
100013fe:	2a00      	cmp	r2, #0
10001400:	d117      	bne.n	10001432 <ph_remove_head+0xd2>
10001402:	465a      	mov	r2, fp
10001404:	4641      	mov	r1, r8
10001406:	0020      	movs	r0, r4
10001408:	f7ff fe90 	bl	1000112c <ph_merge_nodes>
1000140c:	9b01      	ldr	r3, [sp, #4]
1000140e:	0001      	movs	r1, r0
10001410:	6820      	ldr	r0, [r4, #0]
10001412:	1942      	adds	r2, r0, r5
10001414:	2b00      	cmp	r3, #0
10001416:	d1c0      	bne.n	1000139a <ph_remove_head+0x3a>
10001418:	2900      	cmp	r1, #0
1000141a:	d0cd      	beq.n	100013b8 <ph_remove_head+0x58>
1000141c:	004b      	lsls	r3, r1, #1
1000141e:	185b      	adds	r3, r3, r1
10001420:	3b03      	subs	r3, #3
10001422:	18c3      	adds	r3, r0, r3
10001424:	2000      	movs	r0, #0
10001426:	7098      	strb	r0, [r3, #2]
10001428:	e7c6      	b.n	100013b8 <ph_remove_head+0x58>
1000142a:	9b01      	ldr	r3, [sp, #4]
1000142c:	2b00      	cmp	r3, #0
1000142e:	d1b4      	bne.n	1000139a <ph_remove_head+0x3a>
10001430:	e7c2      	b.n	100013b8 <ph_remove_head+0x58>
10001432:	0050      	lsls	r0, r2, #1
10001434:	1880      	adds	r0, r0, r2
10001436:	3803      	subs	r0, #3
10001438:	1809      	adds	r1, r1, r0
1000143a:	7848      	ldrb	r0, [r1, #1]
1000143c:	4682      	mov	sl, r0
1000143e:	4648      	mov	r0, r9
10001440:	7048      	strb	r0, [r1, #1]
10001442:	7058      	strb	r0, [r3, #1]
10001444:	4659      	mov	r1, fp
10001446:	0020      	movs	r0, r4
10001448:	f7ff fe70 	bl	1000112c <ph_merge_nodes>
1000144c:	4653      	mov	r3, sl
1000144e:	4683      	mov	fp, r0
10001450:	2b00      	cmp	r3, #0
10001452:	d007      	beq.n	10001464 <ph_remove_head+0x104>
10001454:	005b      	lsls	r3, r3, #1
10001456:	6821      	ldr	r1, [r4, #0]
10001458:	4453      	add	r3, sl
1000145a:	3b03      	subs	r3, #3
1000145c:	18cb      	adds	r3, r1, r3
1000145e:	785a      	ldrb	r2, [r3, #1]
10001460:	2a00      	cmp	r2, #0
10001462:	d106      	bne.n	10001472 <ph_remove_head+0x112>
10001464:	4659      	mov	r1, fp
10001466:	4652      	mov	r2, sl
10001468:	0020      	movs	r0, r4
1000146a:	f7ff fe5f 	bl	1000112c <ph_merge_nodes>
1000146e:	4683      	mov	fp, r0
10001470:	e7c7      	b.n	10001402 <ph_remove_head+0xa2>
10001472:	0050      	lsls	r0, r2, #1
10001474:	1880      	adds	r0, r0, r2
10001476:	3803      	subs	r0, #3
10001478:	1809      	adds	r1, r1, r0
1000147a:	4648      	mov	r0, r9
1000147c:	784f      	ldrb	r7, [r1, #1]
1000147e:	7048      	strb	r0, [r1, #1]
10001480:	7058      	strb	r0, [r3, #1]
10001482:	4651      	mov	r1, sl
10001484:	0020      	movs	r0, r4
10001486:	f7ff fe51 	bl	1000112c <ph_merge_nodes>
1000148a:	0039      	movs	r1, r7
1000148c:	4681      	mov	r9, r0
1000148e:	0020      	movs	r0, r4
10001490:	f7ff fe9e 	bl	100011d0 <ph_merge_two_pass>
10001494:	4649      	mov	r1, r9
10001496:	0002      	movs	r2, r0
10001498:	0020      	movs	r0, r4
1000149a:	f7ff fe47 	bl	1000112c <ph_merge_nodes>
1000149e:	4682      	mov	sl, r0
100014a0:	e7e0      	b.n	10001464 <ph_remove_head+0x104>
100014a2:	46c0      	nop			; (mov r8, r8)

100014a4 <ph_remove_and_free_node>:
100014a4:	b570      	push	{r4, r5, r6, lr}
100014a6:	0004      	movs	r4, r0
100014a8:	2900      	cmp	r1, #0
100014aa:	d02c      	beq.n	10001506 <ph_remove_and_free_node+0x62>
100014ac:	7b43      	ldrb	r3, [r0, #13]
100014ae:	428b      	cmp	r3, r1
100014b0:	d02e      	beq.n	10001510 <ph_remove_and_free_node+0x6c>
100014b2:	6805      	ldr	r5, [r0, #0]
100014b4:	0048      	lsls	r0, r1, #1
100014b6:	1840      	adds	r0, r0, r1
100014b8:	3803      	subs	r0, #3
100014ba:	1828      	adds	r0, r5, r0
100014bc:	7882      	ldrb	r2, [r0, #2]
100014be:	2a00      	cmp	r2, #0
100014c0:	d021      	beq.n	10001506 <ph_remove_and_free_node+0x62>
100014c2:	0053      	lsls	r3, r2, #1
100014c4:	189b      	adds	r3, r3, r2
100014c6:	3b03      	subs	r3, #3
100014c8:	5cea      	ldrb	r2, [r5, r3]
100014ca:	18ee      	adds	r6, r5, r3
100014cc:	428a      	cmp	r2, r1
100014ce:	d102      	bne.n	100014d6 <ph_remove_and_free_node+0x32>
100014d0:	e01b      	b.n	1000150a <ph_remove_and_free_node+0x66>
100014d2:	2a00      	cmp	r2, #0
100014d4:	d008      	beq.n	100014e8 <ph_remove_and_free_node+0x44>
100014d6:	0053      	lsls	r3, r2, #1
100014d8:	189b      	adds	r3, r3, r2
100014da:	3b03      	subs	r3, #3
100014dc:	18eb      	adds	r3, r5, r3
100014de:	785a      	ldrb	r2, [r3, #1]
100014e0:	428a      	cmp	r2, r1
100014e2:	d1f6      	bne.n	100014d2 <ph_remove_and_free_node+0x2e>
100014e4:	7842      	ldrb	r2, [r0, #1]
100014e6:	705a      	strb	r2, [r3, #1]
100014e8:	2300      	movs	r3, #0
100014ea:	2201      	movs	r2, #1
100014ec:	7083      	strb	r3, [r0, #2]
100014ee:	7043      	strb	r3, [r0, #1]
100014f0:	0020      	movs	r0, r4
100014f2:	f7ff feb5 	bl	10001260 <ph_remove_any_head>
100014f6:	7b61      	ldrb	r1, [r4, #13]
100014f8:	0002      	movs	r2, r0
100014fa:	0020      	movs	r0, r4
100014fc:	f7ff fe16 	bl	1000112c <ph_merge_nodes>
10001500:	7360      	strb	r0, [r4, #13]
10001502:	2001      	movs	r0, #1
10001504:	e000      	b.n	10001508 <ph_remove_and_free_node+0x64>
10001506:	2000      	movs	r0, #0
10001508:	bd70      	pop	{r4, r5, r6, pc}
1000150a:	7843      	ldrb	r3, [r0, #1]
1000150c:	7033      	strb	r3, [r6, #0]
1000150e:	e7eb      	b.n	100014e8 <ph_remove_and_free_node+0x44>
10001510:	2201      	movs	r2, #1
10001512:	0019      	movs	r1, r3
10001514:	f7ff fea4 	bl	10001260 <ph_remove_any_head>
10001518:	7360      	strb	r0, [r4, #13]
1000151a:	2001      	movs	r0, #1
1000151c:	e7f4      	b.n	10001508 <ph_remove_and_free_node+0x64>
1000151e:	46c0      	nop			; (mov r8, r8)

10001520 <uart_init>:
10001520:	b5f8      	push	{r3, r4, r5, r6, r7, lr}
10001522:	0004      	movs	r4, r0
10001524:	2006      	movs	r0, #6
10001526:	000d      	movs	r5, r1
10001528:	f000 f9ca 	bl	100018c0 <clock_get_hz>
1000152c:	2800      	cmp	r0, #0
1000152e:	d045      	beq.n	100015bc <uart_init+0x9c>
10001530:	4b2b      	ldr	r3, [pc, #172]	; (100015e0 <uart_init+0xc0>)
10001532:	492c      	ldr	r1, [pc, #176]	; (100015e4 <uart_init+0xc4>)
10001534:	18e3      	adds	r3, r4, r3
10001536:	425a      	negs	r2, r3
10001538:	4153      	adcs	r3, r2
1000153a:	2280      	movs	r2, #128	; 0x80
1000153c:	03d2      	lsls	r2, r2, #15
1000153e:	4694      	mov	ip, r2
10001540:	425b      	negs	r3, r3
10001542:	4013      	ands	r3, r2
10001544:	4a28      	ldr	r2, [pc, #160]	; (100015e8 <uart_init+0xc8>)
10001546:	4463      	add	r3, ip
10001548:	6013      	str	r3, [r2, #0]
1000154a:	4a28      	ldr	r2, [pc, #160]	; (100015ec <uart_init+0xcc>)
1000154c:	6013      	str	r3, [r2, #0]
1000154e:	0018      	movs	r0, r3
10001550:	688a      	ldr	r2, [r1, #8]
10001552:	4390      	bics	r0, r2
10001554:	d1fb      	bne.n	1000154e <uart_init+0x2e>
10001556:	4b22      	ldr	r3, [pc, #136]	; (100015e0 <uart_init+0xc0>)
10001558:	2180      	movs	r1, #128	; 0x80
1000155a:	18e3      	adds	r3, r4, r3
1000155c:	425a      	negs	r2, r3
1000155e:	4153      	adcs	r3, r2
10001560:	4a23      	ldr	r2, [pc, #140]	; (100015f0 <uart_init+0xd0>)
10001562:	005b      	lsls	r3, r3, #1
10001564:	0049      	lsls	r1, r1, #1
10001566:	2006      	movs	r0, #6
10001568:	5299      	strh	r1, [r3, r2]
1000156a:	f000 f9a9 	bl	100018c0 <clock_get_hz>
1000156e:	0029      	movs	r1, r5
10001570:	00c0      	lsls	r0, r0, #3
10001572:	f000 fb27 	bl	10001bc4 <__wrap___aeabi_uidiv>
10001576:	09c3      	lsrs	r3, r0, #7
10001578:	d121      	bne.n	100015be <uart_init+0x9e>
1000157a:	2740      	movs	r7, #64	; 0x40
1000157c:	2201      	movs	r2, #1
1000157e:	0026      	movs	r6, r4
10001580:	2580      	movs	r5, #128	; 0x80
10001582:	6262      	str	r2, [r4, #36]	; 0x24
10001584:	62a3      	str	r3, [r4, #40]	; 0x28
10001586:	2300      	movs	r3, #0
10001588:	362c      	adds	r6, #44	; 0x2c
1000158a:	01ad      	lsls	r5, r5, #6
1000158c:	4335      	orrs	r5, r6
1000158e:	602b      	str	r3, [r5, #0]
10001590:	2006      	movs	r0, #6
10001592:	f000 f995 	bl	100018c0 <clock_get_hz>
10001596:	0039      	movs	r1, r7
10001598:	0080      	lsls	r0, r0, #2
1000159a:	f000 fb13 	bl	10001bc4 <__wrap___aeabi_uidiv>
1000159e:	2360      	movs	r3, #96	; 0x60
100015a0:	6ae2      	ldr	r2, [r4, #44]	; 0x2c
100015a2:	4053      	eors	r3, r2
100015a4:	226e      	movs	r2, #110	; 0x6e
100015a6:	401a      	ands	r2, r3
100015a8:	2380      	movs	r3, #128	; 0x80
100015aa:	015b      	lsls	r3, r3, #5
100015ac:	4333      	orrs	r3, r6
100015ae:	601a      	str	r2, [r3, #0]
100015b0:	4b10      	ldr	r3, [pc, #64]	; (100015f4 <uart_init+0xd4>)
100015b2:	6323      	str	r3, [r4, #48]	; 0x30
100015b4:	2310      	movs	r3, #16
100015b6:	602b      	str	r3, [r5, #0]
100015b8:	3b0d      	subs	r3, #13
100015ba:	64a3      	str	r3, [r4, #72]	; 0x48
100015bc:	bdf8      	pop	{r3, r4, r5, r6, r7, pc}
100015be:	4a0e      	ldr	r2, [pc, #56]	; (100015f8 <uart_init+0xd8>)
100015c0:	4293      	cmp	r3, r2
100015c2:	d903      	bls.n	100015cc <uart_init+0xac>
100015c4:	2300      	movs	r3, #0
100015c6:	4f0d      	ldr	r7, [pc, #52]	; (100015fc <uart_init+0xdc>)
100015c8:	4a0d      	ldr	r2, [pc, #52]	; (10001600 <uart_init+0xe0>)
100015ca:	e7d8      	b.n	1000157e <uart_init+0x5e>
100015cc:	227f      	movs	r2, #127	; 0x7f
100015ce:	4010      	ands	r0, r2
100015d0:	3001      	adds	r0, #1
100015d2:	0840      	lsrs	r0, r0, #1
100015d4:	019f      	lsls	r7, r3, #6
100015d6:	001a      	movs	r2, r3
100015d8:	183f      	adds	r7, r7, r0
100015da:	0003      	movs	r3, r0
100015dc:	e7cf      	b.n	1000157e <uart_init+0x5e>
100015de:	46c0      	nop			; (mov r8, r8)
100015e0:	bffc8000 	.word	0xbffc8000
100015e4:	4000c000 	.word	0x4000c000
100015e8:	4000e000 	.word	0x4000e000
100015ec:	4000f000 	.word	0x4000f000
100015f0:	20000ce0 	.word	0x20000ce0
100015f4:	00000301 	.word	0x00000301
100015f8:	0000fffe 	.word	0x0000fffe
100015fc:	003fffc0 	.word	0x003fffc0
10001600:	0000ffff 	.word	0x0000ffff

10001604 <clocks_init>:
10001604:	b530      	push	{r4, r5, lr}
10001606:	200c      	movs	r0, #12
10001608:	b083      	sub	sp, #12
1000160a:	f000 f9b3 	bl	10001974 <watchdog_start_tick>
1000160e:	f7fe fec9 	bl	100003a4 <running_on_fpga>
10001612:	2800      	cmp	r0, #0
10001614:	d00e      	beq.n	10001634 <clocks_init+0x30>
10001616:	4b94      	ldr	r3, [pc, #592]	; (10001868 <clocks_init+0x264>)
10001618:	4a94      	ldr	r2, [pc, #592]	; (1000186c <clocks_init+0x268>)
1000161a:	601a      	str	r2, [r3, #0]
1000161c:	605a      	str	r2, [r3, #4]
1000161e:	609a      	str	r2, [r3, #8]
10001620:	60da      	str	r2, [r3, #12]
10001622:	611a      	str	r2, [r3, #16]
10001624:	615a      	str	r2, [r3, #20]
10001626:	619a      	str	r2, [r3, #24]
10001628:	61da      	str	r2, [r3, #28]
1000162a:	621a      	str	r2, [r3, #32]
1000162c:	4a90      	ldr	r2, [pc, #576]	; (10001870 <clocks_init+0x26c>)
1000162e:	625a      	str	r2, [r3, #36]	; 0x24
10001630:	b003      	add	sp, #12
10001632:	bd30      	pop	{r4, r5, pc}
10001634:	4c8f      	ldr	r4, [pc, #572]	; (10001874 <clocks_init+0x270>)
10001636:	67a0      	str	r0, [r4, #120]	; 0x78
10001638:	f000 f9a4 	bl	10001984 <xosc_init>
1000163c:	2201      	movs	r2, #1
1000163e:	4b8e      	ldr	r3, [pc, #568]	; (10001878 <clocks_init+0x274>)
10001640:	601a      	str	r2, [r3, #0]
10001642:	6c63      	ldr	r3, [r4, #68]	; 0x44
10001644:	2b01      	cmp	r3, #1
10001646:	d1fc      	bne.n	10001642 <clocks_init+0x3e>
10001648:	2203      	movs	r2, #3
1000164a:	4b8c      	ldr	r3, [pc, #560]	; (1000187c <clocks_init+0x278>)
1000164c:	601a      	str	r2, [r3, #0]
1000164e:	4a89      	ldr	r2, [pc, #548]	; (10001874 <clocks_init+0x270>)
10001650:	6b93      	ldr	r3, [r2, #56]	; 0x38
10001652:	2b01      	cmp	r3, #1
10001654:	d1fc      	bne.n	10001650 <clocks_init+0x4c>
10001656:	3301      	adds	r3, #1
10001658:	2101      	movs	r1, #1
1000165a:	4a89      	ldr	r2, [pc, #548]	; (10001880 <clocks_init+0x27c>)
1000165c:	4889      	ldr	r0, [pc, #548]	; (10001884 <clocks_init+0x280>)
1000165e:	9300      	str	r3, [sp, #0]
10001660:	3304      	adds	r3, #4
10001662:	f000 f933 	bl	100018cc <pll_init>
10001666:	2305      	movs	r3, #5
10001668:	4a87      	ldr	r2, [pc, #540]	; (10001888 <clocks_init+0x284>)
1000166a:	9300      	str	r3, [sp, #0]
1000166c:	2101      	movs	r1, #1
1000166e:	4887      	ldr	r0, [pc, #540]	; (1000188c <clocks_init+0x288>)
10001670:	f000 f92c 	bl	100018cc <pll_init>
10001674:	4b86      	ldr	r3, [pc, #536]	; (10001890 <clocks_init+0x28c>)
10001676:	685a      	ldr	r2, [r3, #4]
10001678:	2aff      	cmp	r2, #255	; 0xff
1000167a:	d802      	bhi.n	10001682 <clocks_init+0x7e>
1000167c:	2280      	movs	r2, #128	; 0x80
1000167e:	0052      	lsls	r2, r2, #1
10001680:	605a      	str	r2, [r3, #4]
10001682:	2280      	movs	r2, #128	; 0x80
10001684:	4c78      	ldr	r4, [pc, #480]	; (10001868 <clocks_init+0x264>)
10001686:	4b7d      	ldr	r3, [pc, #500]	; (1000187c <clocks_init+0x278>)
10001688:	6921      	ldr	r1, [r4, #16]
1000168a:	0112      	lsls	r2, r2, #4
1000168c:	4d80      	ldr	r5, [pc, #512]	; (10001890 <clocks_init+0x28c>)
1000168e:	601a      	str	r2, [r3, #0]
10001690:	2900      	cmp	r1, #0
10001692:	d005      	beq.n	100016a0 <clocks_init+0x9c>
10001694:	6960      	ldr	r0, [r4, #20]
10001696:	f000 fa95 	bl	10001bc4 <__wrap___aeabi_uidiv>
1000169a:	3001      	adds	r0, #1
1000169c:	3801      	subs	r0, #1
1000169e:	d1fd      	bne.n	1000169c <clocks_init+0x98>
100016a0:	21e0      	movs	r1, #224	; 0xe0
100016a2:	4b7b      	ldr	r3, [pc, #492]	; (10001890 <clocks_init+0x28c>)
100016a4:	2002      	movs	r0, #2
100016a6:	681a      	ldr	r2, [r3, #0]
100016a8:	4011      	ands	r1, r2
100016aa:	2280      	movs	r2, #128	; 0x80
100016ac:	0152      	lsls	r2, r2, #5
100016ae:	432a      	orrs	r2, r5
100016b0:	6011      	str	r1, [r2, #0]
100016b2:	6819      	ldr	r1, [r3, #0]
100016b4:	4048      	eors	r0, r1
100016b6:	2103      	movs	r1, #3
100016b8:	4001      	ands	r1, r0
100016ba:	6011      	str	r1, [r2, #0]
100016bc:	2104      	movs	r1, #4
100016be:	689a      	ldr	r2, [r3, #8]
100016c0:	4211      	tst	r1, r2
100016c2:	d0fc      	beq.n	100016be <clocks_init+0xba>
100016c4:	2280      	movs	r2, #128	; 0x80
100016c6:	2180      	movs	r1, #128	; 0x80
100016c8:	0192      	lsls	r2, r2, #6
100016ca:	432a      	orrs	r2, r5
100016cc:	0109      	lsls	r1, r1, #4
100016ce:	6011      	str	r1, [r2, #0]
100016d0:	2280      	movs	r2, #128	; 0x80
100016d2:	0052      	lsls	r2, r2, #1
100016d4:	605a      	str	r2, [r3, #4]
100016d6:	4b6f      	ldr	r3, [pc, #444]	; (10001894 <clocks_init+0x290>)
100016d8:	6123      	str	r3, [r4, #16]
100016da:	4b6f      	ldr	r3, [pc, #444]	; (10001898 <clocks_init+0x294>)
100016dc:	6859      	ldr	r1, [r3, #4]
100016de:	29ff      	cmp	r1, #255	; 0xff
100016e0:	d800      	bhi.n	100016e4 <clocks_init+0xe0>
100016e2:	605a      	str	r2, [r3, #4]
100016e4:	2203      	movs	r2, #3
100016e6:	486c      	ldr	r0, [pc, #432]	; (10001898 <clocks_init+0x294>)
100016e8:	4b63      	ldr	r3, [pc, #396]	; (10001878 <clocks_init+0x274>)
100016ea:	2101      	movs	r1, #1
100016ec:	601a      	str	r2, [r3, #0]
100016ee:	0002      	movs	r2, r0
100016f0:	6893      	ldr	r3, [r2, #8]
100016f2:	4219      	tst	r1, r3
100016f4:	d0fc      	beq.n	100016f0 <clocks_init+0xec>
100016f6:	25e0      	movs	r5, #224	; 0xe0
100016f8:	6813      	ldr	r3, [r2, #0]
100016fa:	401d      	ands	r5, r3
100016fc:	2380      	movs	r3, #128	; 0x80
100016fe:	015b      	lsls	r3, r3, #5
10001700:	4303      	orrs	r3, r0
10001702:	601d      	str	r5, [r3, #0]
10001704:	6812      	ldr	r2, [r2, #0]
10001706:	404a      	eors	r2, r1
10001708:	2103      	movs	r1, #3
1000170a:	4011      	ands	r1, r2
1000170c:	6019      	str	r1, [r3, #0]
1000170e:	2102      	movs	r1, #2
10001710:	4a61      	ldr	r2, [pc, #388]	; (10001898 <clocks_init+0x294>)
10001712:	6893      	ldr	r3, [r2, #8]
10001714:	4219      	tst	r1, r3
10001716:	d0fc      	beq.n	10001712 <clocks_init+0x10e>
10001718:	2380      	movs	r3, #128	; 0x80
1000171a:	2180      	movs	r1, #128	; 0x80
1000171c:	019b      	lsls	r3, r3, #6
1000171e:	4303      	orrs	r3, r0
10001720:	0109      	lsls	r1, r1, #4
10001722:	6019      	str	r1, [r3, #0]
10001724:	2180      	movs	r1, #128	; 0x80
10001726:	4b5d      	ldr	r3, [pc, #372]	; (1000189c <clocks_init+0x298>)
10001728:	0049      	lsls	r1, r1, #1
1000172a:	6051      	str	r1, [r2, #4]
1000172c:	6163      	str	r3, [r4, #20]
1000172e:	4b5c      	ldr	r3, [pc, #368]	; (100018a0 <clocks_init+0x29c>)
10001730:	685a      	ldr	r2, [r3, #4]
10001732:	2aff      	cmp	r2, #255	; 0xff
10001734:	d800      	bhi.n	10001738 <clocks_init+0x134>
10001736:	6059      	str	r1, [r3, #4]
10001738:	2280      	movs	r2, #128	; 0x80
1000173a:	4b5a      	ldr	r3, [pc, #360]	; (100018a4 <clocks_init+0x2a0>)
1000173c:	69e1      	ldr	r1, [r4, #28]
1000173e:	0112      	lsls	r2, r2, #4
10001740:	4d57      	ldr	r5, [pc, #348]	; (100018a0 <clocks_init+0x29c>)
10001742:	601a      	str	r2, [r3, #0]
10001744:	2900      	cmp	r1, #0
10001746:	d005      	beq.n	10001754 <clocks_init+0x150>
10001748:	6960      	ldr	r0, [r4, #20]
1000174a:	f000 fa3b 	bl	10001bc4 <__wrap___aeabi_uidiv>
1000174e:	3001      	adds	r0, #1
10001750:	3801      	subs	r0, #1
10001752:	d1fd      	bne.n	10001750 <clocks_init+0x14c>
10001754:	22e0      	movs	r2, #224	; 0xe0
10001756:	4952      	ldr	r1, [pc, #328]	; (100018a0 <clocks_init+0x29c>)
10001758:	680b      	ldr	r3, [r1, #0]
1000175a:	401a      	ands	r2, r3
1000175c:	2380      	movs	r3, #128	; 0x80
1000175e:	015b      	lsls	r3, r3, #5
10001760:	432b      	orrs	r3, r5
10001762:	601a      	str	r2, [r3, #0]
10001764:	2380      	movs	r3, #128	; 0x80
10001766:	2280      	movs	r2, #128	; 0x80
10001768:	019b      	lsls	r3, r3, #6
1000176a:	432b      	orrs	r3, r5
1000176c:	0112      	lsls	r2, r2, #4
1000176e:	601a      	str	r2, [r3, #0]
10001770:	2280      	movs	r2, #128	; 0x80
10001772:	4b3e      	ldr	r3, [pc, #248]	; (1000186c <clocks_init+0x268>)
10001774:	0052      	lsls	r2, r2, #1
10001776:	604a      	str	r2, [r1, #4]
10001778:	61e3      	str	r3, [r4, #28]
1000177a:	4b4b      	ldr	r3, [pc, #300]	; (100018a8 <clocks_init+0x2a4>)
1000177c:	6859      	ldr	r1, [r3, #4]
1000177e:	29ff      	cmp	r1, #255	; 0xff
10001780:	d800      	bhi.n	10001784 <clocks_init+0x180>
10001782:	605a      	str	r2, [r3, #4]
10001784:	2280      	movs	r2, #128	; 0x80
10001786:	4b49      	ldr	r3, [pc, #292]	; (100018ac <clocks_init+0x2a8>)
10001788:	6a21      	ldr	r1, [r4, #32]
1000178a:	0112      	lsls	r2, r2, #4
1000178c:	4d46      	ldr	r5, [pc, #280]	; (100018a8 <clocks_init+0x2a4>)
1000178e:	601a      	str	r2, [r3, #0]
10001790:	2900      	cmp	r1, #0
10001792:	d005      	beq.n	100017a0 <clocks_init+0x19c>
10001794:	6960      	ldr	r0, [r4, #20]
10001796:	f000 fa15 	bl	10001bc4 <__wrap___aeabi_uidiv>
1000179a:	3001      	adds	r0, #1
1000179c:	3801      	subs	r0, #1
1000179e:	d1fd      	bne.n	1000179c <clocks_init+0x198>
100017a0:	22e0      	movs	r2, #224	; 0xe0
100017a2:	4941      	ldr	r1, [pc, #260]	; (100018a8 <clocks_init+0x2a4>)
100017a4:	680b      	ldr	r3, [r1, #0]
100017a6:	401a      	ands	r2, r3
100017a8:	2380      	movs	r3, #128	; 0x80
100017aa:	015b      	lsls	r3, r3, #5
100017ac:	432b      	orrs	r3, r5
100017ae:	601a      	str	r2, [r3, #0]
100017b0:	2380      	movs	r3, #128	; 0x80
100017b2:	2280      	movs	r2, #128	; 0x80
100017b4:	019b      	lsls	r3, r3, #6
100017b6:	432b      	orrs	r3, r5
100017b8:	0112      	lsls	r2, r2, #4
100017ba:	601a      	str	r2, [r3, #0]
100017bc:	2380      	movs	r3, #128	; 0x80
100017be:	2280      	movs	r2, #128	; 0x80
100017c0:	005b      	lsls	r3, r3, #1
100017c2:	604b      	str	r3, [r1, #4]
100017c4:	4b29      	ldr	r3, [pc, #164]	; (1000186c <clocks_init+0x268>)
100017c6:	02d2      	lsls	r2, r2, #11
100017c8:	6223      	str	r3, [r4, #32]
100017ca:	4b39      	ldr	r3, [pc, #228]	; (100018b0 <clocks_init+0x2ac>)
100017cc:	6859      	ldr	r1, [r3, #4]
100017ce:	4291      	cmp	r1, r2
100017d0:	d200      	bcs.n	100017d4 <clocks_init+0x1d0>
100017d2:	605a      	str	r2, [r3, #4]
100017d4:	2280      	movs	r2, #128	; 0x80
100017d6:	4b37      	ldr	r3, [pc, #220]	; (100018b4 <clocks_init+0x2b0>)
100017d8:	6a61      	ldr	r1, [r4, #36]	; 0x24
100017da:	0112      	lsls	r2, r2, #4
100017dc:	4d34      	ldr	r5, [pc, #208]	; (100018b0 <clocks_init+0x2ac>)
100017de:	601a      	str	r2, [r3, #0]
100017e0:	2900      	cmp	r1, #0
100017e2:	d005      	beq.n	100017f0 <clocks_init+0x1ec>
100017e4:	6960      	ldr	r0, [r4, #20]
100017e6:	f000 f9ed 	bl	10001bc4 <__wrap___aeabi_uidiv>
100017ea:	3001      	adds	r0, #1
100017ec:	3801      	subs	r0, #1
100017ee:	d1fd      	bne.n	100017ec <clocks_init+0x1e8>
100017f0:	22e0      	movs	r2, #224	; 0xe0
100017f2:	492f      	ldr	r1, [pc, #188]	; (100018b0 <clocks_init+0x2ac>)
100017f4:	680b      	ldr	r3, [r1, #0]
100017f6:	401a      	ands	r2, r3
100017f8:	2380      	movs	r3, #128	; 0x80
100017fa:	015b      	lsls	r3, r3, #5
100017fc:	432b      	orrs	r3, r5
100017fe:	601a      	str	r2, [r3, #0]
10001800:	2380      	movs	r3, #128	; 0x80
10001802:	2280      	movs	r2, #128	; 0x80
10001804:	019b      	lsls	r3, r3, #6
10001806:	432b      	orrs	r3, r5
10001808:	0112      	lsls	r2, r2, #4
1000180a:	601a      	str	r2, [r3, #0]
1000180c:	2380      	movs	r3, #128	; 0x80
1000180e:	02db      	lsls	r3, r3, #11
10001810:	604b      	str	r3, [r1, #4]
10001812:	4b17      	ldr	r3, [pc, #92]	; (10001870 <clocks_init+0x26c>)
10001814:	6263      	str	r3, [r4, #36]	; 0x24
10001816:	4b28      	ldr	r3, [pc, #160]	; (100018b8 <clocks_init+0x2b4>)
10001818:	685a      	ldr	r2, [r3, #4]
1000181a:	2aff      	cmp	r2, #255	; 0xff
1000181c:	d802      	bhi.n	10001824 <clocks_init+0x220>
1000181e:	2280      	movs	r2, #128	; 0x80
10001820:	0052      	lsls	r2, r2, #1
10001822:	605a      	str	r2, [r3, #4]
10001824:	2280      	movs	r2, #128	; 0x80
10001826:	4b25      	ldr	r3, [pc, #148]	; (100018bc <clocks_init+0x2b8>)
10001828:	69a1      	ldr	r1, [r4, #24]
1000182a:	0112      	lsls	r2, r2, #4
1000182c:	4d22      	ldr	r5, [pc, #136]	; (100018b8 <clocks_init+0x2b4>)
1000182e:	601a      	str	r2, [r3, #0]
10001830:	2900      	cmp	r1, #0
10001832:	d005      	beq.n	10001840 <clocks_init+0x23c>
10001834:	6960      	ldr	r0, [r4, #20]
10001836:	f000 f9c5 	bl	10001bc4 <__wrap___aeabi_uidiv>
1000183a:	3001      	adds	r0, #1
1000183c:	3801      	subs	r0, #1
1000183e:	d1fd      	bne.n	1000183c <clocks_init+0x238>
10001840:	22e0      	movs	r2, #224	; 0xe0
10001842:	491d      	ldr	r1, [pc, #116]	; (100018b8 <clocks_init+0x2b4>)
10001844:	680b      	ldr	r3, [r1, #0]
10001846:	401a      	ands	r2, r3
10001848:	2380      	movs	r3, #128	; 0x80
1000184a:	015b      	lsls	r3, r3, #5
1000184c:	432b      	orrs	r3, r5
1000184e:	601a      	str	r2, [r3, #0]
10001850:	2380      	movs	r3, #128	; 0x80
10001852:	2280      	movs	r2, #128	; 0x80
10001854:	019b      	lsls	r3, r3, #6
10001856:	432b      	orrs	r3, r5
10001858:	0112      	lsls	r2, r2, #4
1000185a:	601a      	str	r2, [r3, #0]
1000185c:	2380      	movs	r3, #128	; 0x80
1000185e:	005b      	lsls	r3, r3, #1
10001860:	604b      	str	r3, [r1, #4]
10001862:	4b0e      	ldr	r3, [pc, #56]	; (1000189c <clocks_init+0x298>)
10001864:	61a3      	str	r3, [r4, #24]
10001866:	e6e3      	b.n	10001630 <clocks_init+0x2c>
10001868:	20000c38 	.word	0x20000c38
1000186c:	02dc6c00 	.word	0x02dc6c00
10001870:	0000b71b 	.word	0x0000b71b
10001874:	40008000 	.word	0x40008000
10001878:	4000b03c 	.word	0x4000b03c
1000187c:	4000b030 	.word	0x4000b030
10001880:	59682f00 	.word	0x59682f00
10001884:	40028000 	.word	0x40028000
10001888:	47868c00 	.word	0x47868c00
1000188c:	4002c000 	.word	0x4002c000
10001890:	40008030 	.word	0x40008030
10001894:	00b71b00 	.word	0x00b71b00
10001898:	4000803c 	.word	0x4000803c
1000189c:	07735940 	.word	0x07735940
100018a0:	40008054 	.word	0x40008054
100018a4:	4000b054 	.word	0x4000b054
100018a8:	40008060 	.word	0x40008060
100018ac:	4000b060 	.word	0x4000b060
100018b0:	4000806c 	.word	0x4000806c
100018b4:	4000b06c 	.word	0x4000b06c
100018b8:	40008048 	.word	0x40008048
100018bc:	4000b048 	.word	0x4000b048

100018c0 <clock_get_hz>:
100018c0:	4b01      	ldr	r3, [pc, #4]	; (100018c8 <clock_get_hz+0x8>)
100018c2:	0080      	lsls	r0, r0, #2
100018c4:	58c0      	ldr	r0, [r0, r3]
100018c6:	4770      	bx	lr
100018c8:	20000c38 	.word	0x20000c38

100018cc <pll_init>:
100018cc:	b5f8      	push	{r3, r4, r5, r6, r7, lr}
100018ce:	0004      	movs	r4, r0
100018d0:	200c      	movs	r0, #12
100018d2:	0017      	movs	r7, r2
100018d4:	001d      	movs	r5, r3
100018d6:	000e      	movs	r6, r1
100018d8:	f000 f974 	bl	10001bc4 <__wrap___aeabi_uidiv>
100018dc:	0141      	lsls	r1, r0, #5
100018de:	1a09      	subs	r1, r1, r0
100018e0:	018b      	lsls	r3, r1, #6
100018e2:	1a59      	subs	r1, r3, r1
100018e4:	00c9      	lsls	r1, r1, #3
100018e6:	1809      	adds	r1, r1, r0
100018e8:	0189      	lsls	r1, r1, #6
100018ea:	0038      	movs	r0, r7
100018ec:	f000 f96a 	bl	10001bc4 <__wrap___aeabi_uidiv>
100018f0:	9a06      	ldr	r2, [sp, #24]
100018f2:	042b      	lsls	r3, r5, #16
100018f4:	0312      	lsls	r2, r2, #12
100018f6:	4313      	orrs	r3, r2
100018f8:	6822      	ldr	r2, [r4, #0]
100018fa:	2a00      	cmp	r2, #0
100018fc:	db21      	blt.n	10001942 <pll_init+0x76>
100018fe:	4a19      	ldr	r2, [pc, #100]	; (10001964 <pll_init+0x98>)
10001900:	18a2      	adds	r2, r4, r2
10001902:	4251      	negs	r1, r2
10001904:	414a      	adcs	r2, r1
10001906:	2180      	movs	r1, #128	; 0x80
10001908:	0149      	lsls	r1, r1, #5
1000190a:	468c      	mov	ip, r1
1000190c:	4252      	negs	r2, r2
1000190e:	400a      	ands	r2, r1
10001910:	4915      	ldr	r1, [pc, #84]	; (10001968 <pll_init+0x9c>)
10001912:	4462      	add	r2, ip
10001914:	600a      	str	r2, [r1, #0]
10001916:	4915      	ldr	r1, [pc, #84]	; (1000196c <pll_init+0xa0>)
10001918:	600a      	str	r2, [r1, #0]
1000191a:	4915      	ldr	r1, [pc, #84]	; (10001970 <pll_init+0xa4>)
1000191c:	0017      	movs	r7, r2
1000191e:	688d      	ldr	r5, [r1, #8]
10001920:	43af      	bics	r7, r5
10001922:	d1fb      	bne.n	1000191c <pll_init+0x50>
10001924:	21c0      	movs	r1, #192	; 0xc0
10001926:	1d22      	adds	r2, r4, #4
10001928:	0189      	lsls	r1, r1, #6
1000192a:	4311      	orrs	r1, r2
1000192c:	2221      	movs	r2, #33	; 0x21
1000192e:	6026      	str	r6, [r4, #0]
10001930:	60a0      	str	r0, [r4, #8]
10001932:	600a      	str	r2, [r1, #0]
10001934:	6822      	ldr	r2, [r4, #0]
10001936:	2a00      	cmp	r2, #0
10001938:	dafc      	bge.n	10001934 <pll_init+0x68>
1000193a:	60e3      	str	r3, [r4, #12]
1000193c:	2308      	movs	r3, #8
1000193e:	600b      	str	r3, [r1, #0]
10001940:	bdf8      	pop	{r3, r4, r5, r6, r7, pc}
10001942:	223f      	movs	r2, #63	; 0x3f
10001944:	6821      	ldr	r1, [r4, #0]
10001946:	400a      	ands	r2, r1
10001948:	42b2      	cmp	r2, r6
1000194a:	d1d8      	bne.n	100018fe <pll_init+0x32>
1000194c:	68a2      	ldr	r2, [r4, #8]
1000194e:	0512      	lsls	r2, r2, #20
10001950:	0d12      	lsrs	r2, r2, #20
10001952:	4282      	cmp	r2, r0
10001954:	d1d3      	bne.n	100018fe <pll_init+0x32>
10001956:	21ee      	movs	r1, #238	; 0xee
10001958:	68e2      	ldr	r2, [r4, #12]
1000195a:	02c9      	lsls	r1, r1, #11
1000195c:	400a      	ands	r2, r1
1000195e:	429a      	cmp	r2, r3
10001960:	d1cd      	bne.n	100018fe <pll_init+0x32>
10001962:	e7ed      	b.n	10001940 <pll_init+0x74>
10001964:	bffd4000 	.word	0xbffd4000
10001968:	4000e000 	.word	0x4000e000
1000196c:	4000f000 	.word	0x4000f000
10001970:	4000c000 	.word	0x4000c000

10001974 <watchdog_start_tick>:
10001974:	2380      	movs	r3, #128	; 0x80
10001976:	4a02      	ldr	r2, [pc, #8]	; (10001980 <watchdog_start_tick+0xc>)
10001978:	009b      	lsls	r3, r3, #2
1000197a:	4303      	orrs	r3, r0
1000197c:	62d3      	str	r3, [r2, #44]	; 0x2c
1000197e:	4770      	bx	lr
10001980:	40058000 	.word	0x40058000

10001984 <xosc_init>:
10001984:	23aa      	movs	r3, #170	; 0xaa
10001986:	4a06      	ldr	r2, [pc, #24]	; (100019a0 <xosc_init+0x1c>)
10001988:	011b      	lsls	r3, r3, #4
1000198a:	6013      	str	r3, [r2, #0]
1000198c:	232f      	movs	r3, #47	; 0x2f
1000198e:	4905      	ldr	r1, [pc, #20]	; (100019a4 <xosc_init+0x20>)
10001990:	60d3      	str	r3, [r2, #12]
10001992:	4b05      	ldr	r3, [pc, #20]	; (100019a8 <xosc_init+0x24>)
10001994:	6019      	str	r1, [r3, #0]
10001996:	6853      	ldr	r3, [r2, #4]
10001998:	2b00      	cmp	r3, #0
1000199a:	dafc      	bge.n	10001996 <xosc_init+0x12>
1000199c:	4770      	bx	lr
1000199e:	46c0      	nop			; (mov r8, r8)
100019a0:	40024000 	.word	0x40024000
100019a4:	00fab000 	.word	0x00fab000
100019a8:	40026000 	.word	0x40026000

100019ac <runtime_init>:
100019ac:	4b2c      	ldr	r3, [pc, #176]	; (10001a60 <runtime_init+0xb4>)
100019ae:	4a2d      	ldr	r2, [pc, #180]	; (10001a64 <runtime_init+0xb8>)
100019b0:	b570      	push	{r4, r5, r6, lr}
100019b2:	601a      	str	r2, [r3, #0]
100019b4:	4a2c      	ldr	r2, [pc, #176]	; (10001a68 <runtime_init+0xbc>)
100019b6:	4b2d      	ldr	r3, [pc, #180]	; (10001a6c <runtime_init+0xc0>)
100019b8:	492d      	ldr	r1, [pc, #180]	; (10001a70 <runtime_init+0xc4>)
100019ba:	601a      	str	r2, [r3, #0]
100019bc:	0010      	movs	r0, r2
100019be:	688b      	ldr	r3, [r1, #8]
100019c0:	4398      	bics	r0, r3
100019c2:	d1fb      	bne.n	100019bc <runtime_init+0x10>
100019c4:	4c2b      	ldr	r4, [pc, #172]	; (10001a74 <runtime_init+0xc8>)
100019c6:	4b2c      	ldr	r3, [pc, #176]	; (10001a78 <runtime_init+0xcc>)
100019c8:	429c      	cmp	r4, r3
100019ca:	d209      	bcs.n	100019e0 <runtime_init+0x34>
100019cc:	3b01      	subs	r3, #1
100019ce:	1b1d      	subs	r5, r3, r4
100019d0:	08ad      	lsrs	r5, r5, #2
100019d2:	3501      	adds	r5, #1
100019d4:	00ad      	lsls	r5, r5, #2
100019d6:	192d      	adds	r5, r5, r4
100019d8:	cc08      	ldmia	r4!, {r3}
100019da:	4798      	blx	r3
100019dc:	42ac      	cmp	r4, r5
100019de:	d1fb      	bne.n	100019d8 <runtime_init+0x2c>
100019e0:	f7ff fe10 	bl	10001604 <clocks_init>
100019e4:	4a25      	ldr	r2, [pc, #148]	; (10001a7c <runtime_init+0xd0>)
100019e6:	4b21      	ldr	r3, [pc, #132]	; (10001a6c <runtime_init+0xc0>)
100019e8:	601a      	str	r2, [r3, #0]
100019ea:	4a21      	ldr	r2, [pc, #132]	; (10001a70 <runtime_init+0xc4>)
100019ec:	6893      	ldr	r3, [r2, #8]
100019ee:	01db      	lsls	r3, r3, #7
100019f0:	3380      	adds	r3, #128	; 0x80
100019f2:	d1fb      	bne.n	100019ec <runtime_init+0x40>
100019f4:	2240      	movs	r2, #64	; 0x40
100019f6:	4b22      	ldr	r3, [pc, #136]	; (10001a80 <runtime_init+0xd4>)
100019f8:	4c22      	ldr	r4, [pc, #136]	; (10001a84 <runtime_init+0xd8>)
100019fa:	4d23      	ldr	r5, [pc, #140]	; (10001a88 <runtime_init+0xdc>)
100019fc:	679a      	str	r2, [r3, #120]	; 0x78
100019fe:	675a      	str	r2, [r3, #116]	; 0x74
10001a00:	671a      	str	r2, [r3, #112]	; 0x70
10001a02:	66da      	str	r2, [r3, #108]	; 0x6c
10001a04:	42ac      	cmp	r4, r5
10001a06:	d208      	bcs.n	10001a1a <runtime_init+0x6e>
10001a08:	6823      	ldr	r3, [r4, #0]
10001a0a:	0020      	movs	r0, r4
10001a0c:	2b00      	cmp	r3, #0
10001a0e:	d021      	beq.n	10001a54 <runtime_init+0xa8>
10001a10:	3408      	adds	r4, #8
10001a12:	f7fe fead 	bl	10000770 <recursive_mutex_init>
10001a16:	42ac      	cmp	r4, r5
10001a18:	d3f6      	bcc.n	10001a08 <runtime_init+0x5c>
10001a1a:	4c1c      	ldr	r4, [pc, #112]	; (10001a8c <runtime_init+0xe0>)
10001a1c:	4d1c      	ldr	r5, [pc, #112]	; (10001a90 <runtime_init+0xe4>)
10001a1e:	68a1      	ldr	r1, [r4, #8]
10001a20:	22c0      	movs	r2, #192	; 0xc0
10001a22:	0028      	movs	r0, r5
10001a24:	f000 f9e6 	bl	10001df4 <__wrap___aeabi_memcpy>
10001a28:	60a5      	str	r5, [r4, #8]
10001a2a:	f7fe fce7 	bl	100003fc <spin_locks_reset>
10001a2e:	f7fe fe77 	bl	10000720 <irq_init_priorities>
10001a32:	f7ff f83d 	bl	10000ab0 <alarm_pool_init_default>
10001a36:	4c17      	ldr	r4, [pc, #92]	; (10001a94 <runtime_init+0xe8>)
10001a38:	4b17      	ldr	r3, [pc, #92]	; (10001a98 <runtime_init+0xec>)
10001a3a:	429c      	cmp	r4, r3
10001a3c:	d209      	bcs.n	10001a52 <runtime_init+0xa6>
10001a3e:	3b01      	subs	r3, #1
10001a40:	1b1d      	subs	r5, r3, r4
10001a42:	08ad      	lsrs	r5, r5, #2
10001a44:	3501      	adds	r5, #1
10001a46:	00ad      	lsls	r5, r5, #2
10001a48:	192d      	adds	r5, r5, r4
10001a4a:	cc08      	ldmia	r4!, {r3}
10001a4c:	4798      	blx	r3
10001a4e:	42a5      	cmp	r5, r4
10001a50:	d1fb      	bne.n	10001a4a <runtime_init+0x9e>
10001a52:	bd70      	pop	{r4, r5, r6, pc}
10001a54:	3408      	adds	r4, #8
10001a56:	f7fe fe7d 	bl	10000754 <mutex_init>
10001a5a:	42ac      	cmp	r4, r5
10001a5c:	d3d4      	bcc.n	10001a08 <runtime_init+0x5c>
10001a5e:	e7dc      	b.n	10001a1a <runtime_init+0x6e>
10001a60:	4000e000 	.word	0x4000e000
10001a64:	fefbcdbf 	.word	0xfefbcdbf
10001a68:	003c7ffe 	.word	0x003c7ffe
10001a6c:	4000f000 	.word	0x4000f000
10001a70:	4000c000 	.word	0x4000c000
10001a74:	20000ab8 	.word	0x20000ab8
10001a78:	20000ac8 	.word	0x20000ac8
10001a7c:	01ffffff 	.word	0x01ffffff
10001a80:	4001f000 	.word	0x4001f000
10001a84:	20000ab0 	.word	0x20000ab0
10001a88:	20000ab8 	.word	0x20000ab8
10001a8c:	e000ed00 	.word	0xe000ed00
10001a90:	20000000 	.word	0x20000000
10001a94:	20000ac8 	.word	0x20000ac8
10001a98:	20000acc 	.word	0x20000acc

10001a9c <_exit>:
10001a9c:	be00      	bkpt	0x0000
10001a9e:	e7fd      	b.n	10001a9c <_exit>

10001aa0 <_sbrk>:
10001aa0:	4a09      	ldr	r2, [pc, #36]	; (10001ac8 <_sbrk+0x28>)
10001aa2:	0003      	movs	r3, r0
10001aa4:	6810      	ldr	r0, [r2, #0]
10001aa6:	2800      	cmp	r0, #0
10001aa8:	d005      	beq.n	10001ab6 <_sbrk+0x16>
10001aaa:	4908      	ldr	r1, [pc, #32]	; (10001acc <_sbrk+0x2c>)
10001aac:	18c3      	adds	r3, r0, r3
10001aae:	428b      	cmp	r3, r1
10001ab0:	d807      	bhi.n	10001ac2 <_sbrk+0x22>
10001ab2:	6013      	str	r3, [r2, #0]
10001ab4:	4770      	bx	lr
10001ab6:	4806      	ldr	r0, [pc, #24]	; (10001ad0 <_sbrk+0x30>)
10001ab8:	4904      	ldr	r1, [pc, #16]	; (10001acc <_sbrk+0x2c>)
10001aba:	18c3      	adds	r3, r0, r3
10001abc:	6010      	str	r0, [r2, #0]
10001abe:	428b      	cmp	r3, r1
10001ac0:	d9f7      	bls.n	10001ab2 <_sbrk+0x12>
10001ac2:	2001      	movs	r0, #1
10001ac4:	4240      	negs	r0, r0
10001ac6:	e7f5      	b.n	10001ab4 <_sbrk+0x14>
10001ac8:	20000ca8 	.word	0x20000ca8
10001acc:	20040000 	.word	0x20040000
10001ad0:	20000ee8 	.word	0x20000ee8

10001ad4 <exit>:
10001ad4:	b510      	push	{r4, lr}
10001ad6:	f7ff ffe1 	bl	10001a9c <_exit>
10001ada:	46c0      	nop			; (mov r8, r8)

10001adc <panic>:
10001adc:	b40f      	push	{r0, r1, r2, r3}
10001ade:	b500      	push	{lr}
10001ae0:	4808      	ldr	r0, [pc, #32]	; (10001b04 <panic+0x28>)
10001ae2:	b083      	sub	sp, #12
10001ae4:	f000 faac 	bl	10002040 <__wrap_puts>
10001ae8:	9b04      	ldr	r3, [sp, #16]
10001aea:	2b00      	cmp	r3, #0
10001aec:	d007      	beq.n	10001afe <panic+0x22>
10001aee:	a905      	add	r1, sp, #20
10001af0:	0018      	movs	r0, r3
10001af2:	9101      	str	r1, [sp, #4]
10001af4:	f000 f818 	bl	10001b28 <weak_raw_vprintf>
10001af8:	4803      	ldr	r0, [pc, #12]	; (10001b08 <panic+0x2c>)
10001afa:	f000 faa1 	bl	10002040 <__wrap_puts>
10001afe:	2001      	movs	r0, #1
10001b00:	f7ff ffcc 	bl	10001a9c <_exit>
10001b04:	10002c34 	.word	0x10002c34
10001b08:	10002c44 	.word	0x10002c44

10001b0c <hard_assertion_failure>:
10001b0c:	b510      	push	{r4, lr}
10001b0e:	4801      	ldr	r0, [pc, #4]	; (10001b14 <hard_assertion_failure+0x8>)
10001b10:	f7ff ffe4 	bl	10001adc <panic>
10001b14:	10002c48 	.word	0x10002c48

10001b18 <_out_char>:
10001b18:	b510      	push	{r4, lr}
10001b1a:	2800      	cmp	r0, #0
10001b1c:	d100      	bne.n	10001b20 <_out_char+0x8>
10001b1e:	bd10      	pop	{r4, pc}
10001b20:	f000 fa42 	bl	10001fa8 <__wrap_putchar>
10001b24:	e7fb      	b.n	10001b1e <_out_char+0x6>
10001b26:	46c0      	nop			; (mov r8, r8)

10001b28 <weak_raw_vprintf>:
10001b28:	b510      	push	{r4, lr}
10001b2a:	4a09      	ldr	r2, [pc, #36]	; (10001b50 <weak_raw_vprintf+0x28>)
10001b2c:	0003      	movs	r3, r0
10001b2e:	6814      	ldr	r4, [r2, #0]
10001b30:	b084      	sub	sp, #16
10001b32:	2c00      	cmp	r4, #0
10001b34:	d008      	beq.n	10001b48 <weak_raw_vprintf+0x20>
10001b36:	2201      	movs	r2, #1
10001b38:	9100      	str	r1, [sp, #0]
10001b3a:	4806      	ldr	r0, [pc, #24]	; (10001b54 <weak_raw_vprintf+0x2c>)
10001b3c:	4252      	negs	r2, r2
10001b3e:	a903      	add	r1, sp, #12
10001b40:	47a0      	blx	r4
10001b42:	2001      	movs	r0, #1
10001b44:	b004      	add	sp, #16
10001b46:	bd10      	pop	{r4, pc}
10001b48:	f000 fa7a 	bl	10002040 <__wrap_puts>
10001b4c:	2000      	movs	r0, #0
10001b4e:	e7f9      	b.n	10001b44 <weak_raw_vprintf+0x1c>
10001b50:	20000cac 	.word	0x20000cac
10001b54:	10001b19 	.word	0x10001b19

10001b58 <__aeabi_bits_init>:
10001b58:	4801      	ldr	r0, [pc, #4]	; (10001b60 <__aeabi_bits_init+0x8>)
10001b5a:	2104      	movs	r1, #4
10001b5c:	4b01      	ldr	r3, [pc, #4]	; (10001b64 <__aeabi_bits_init+0xc>)
10001b5e:	4718      	bx	r3
10001b60:	20000230 	.word	0x20000230
10001b64:	10001b89 	.word	0x10001b89

10001b68 <rom_func_lookup>:
10001b68:	2314      	movs	r3, #20
10001b6a:	b510      	push	{r4, lr}
10001b6c:	0001      	movs	r1, r0
10001b6e:	8818      	ldrh	r0, [r3, #0]
10001b70:	3304      	adds	r3, #4
10001b72:	881b      	ldrh	r3, [r3, #0]
10001b74:	4798      	blx	r3
10001b76:	bd10      	pop	{r4, pc}

10001b78 <rom_data_lookup>:
10001b78:	2316      	movs	r3, #22
10001b7a:	b510      	push	{r4, lr}
10001b7c:	0001      	movs	r1, r0
10001b7e:	8818      	ldrh	r0, [r3, #0]
10001b80:	3302      	adds	r3, #2
10001b82:	881b      	ldrh	r3, [r3, #0]
10001b84:	4798      	blx	r3
10001b86:	bd10      	pop	{r4, pc}

10001b88 <rom_funcs_lookup>:
10001b88:	b5f0      	push	{r4, r5, r6, r7, lr}
10001b8a:	46c6      	mov	lr, r8
10001b8c:	b500      	push	{lr}
10001b8e:	2900      	cmp	r1, #0
10001b90:	d016      	beq.n	10001bc0 <rom_funcs_lookup+0x38>
10001b92:	2314      	movs	r3, #20
10001b94:	0004      	movs	r4, r0
10001b96:	2501      	movs	r5, #1
10001b98:	4698      	mov	r8, r3
10001b9a:	2718      	movs	r7, #24
10001b9c:	0089      	lsls	r1, r1, #2
10001b9e:	1846      	adds	r6, r0, r1
10001ba0:	4643      	mov	r3, r8
10001ba2:	6821      	ldr	r1, [r4, #0]
10001ba4:	8818      	ldrh	r0, [r3, #0]
10001ba6:	883b      	ldrh	r3, [r7, #0]
10001ba8:	4798      	blx	r3
10001baa:	c401      	stmia	r4!, {r0}
10001bac:	1e43      	subs	r3, r0, #1
10001bae:	4198      	sbcs	r0, r3
10001bb0:	4240      	negs	r0, r0
10001bb2:	4005      	ands	r5, r0
10001bb4:	42a6      	cmp	r6, r4
10001bb6:	d1f3      	bne.n	10001ba0 <rom_funcs_lookup+0x18>
10001bb8:	0028      	movs	r0, r5
10001bba:	bc04      	pop	{r2}
10001bbc:	4690      	mov	r8, r2
10001bbe:	bdf0      	pop	{r4, r5, r6, r7, pc}
10001bc0:	2501      	movs	r5, #1
10001bc2:	e7f9      	b.n	10001bb8 <rom_funcs_lookup+0x30>

10001bc4 <__wrap___aeabi_uidiv>:
10001bc4:	4a11      	ldr	r2, [pc, #68]	; (10001c0c <divmod_u32u32_savestate+0x18>)
10001bc6:	6f93      	ldr	r3, [r2, #120]	; 0x78
10001bc8:	089b      	lsrs	r3, r3, #2
10001bca:	d213      	bcs.n	10001bf4 <divmod_u32u32_savestate>

10001bcc <divmod_u32u32_unsafe>:
10001bcc:	6610      	str	r0, [r2, #96]	; 0x60
10001bce:	6651      	str	r1, [r2, #100]	; 0x64
10001bd0:	2900      	cmp	r1, #0
10001bd2:	d005      	beq.n	10001be0 <divmod_u32u32_unsafe+0x14>
10001bd4:	e7ff      	b.n	10001bd6 <divmod_u32u32_unsafe+0xa>
10001bd6:	e7ff      	b.n	10001bd8 <divmod_u32u32_unsafe+0xc>
10001bd8:	e7ff      	b.n	10001bda <divmod_u32u32_unsafe+0xe>
10001bda:	6f51      	ldr	r1, [r2, #116]	; 0x74
10001bdc:	6f10      	ldr	r0, [r2, #112]	; 0x70
10001bde:	4770      	bx	lr
10001be0:	b504      	push	{r2, lr}
10001be2:	2800      	cmp	r0, #0
10001be4:	d001      	beq.n	10001bea <divmod_u32u32_unsafe+0x1e>
10001be6:	2000      	movs	r0, #0
10001be8:	43c0      	mvns	r0, r0
10001bea:	f001 f801 	bl	10002bf0 <____aeabi_idiv0_veneer>
10001bee:	2100      	movs	r1, #0
10001bf0:	bd04      	pop	{r2, pc}
10001bf2:	46c0      	nop			; (mov r8, r8)

10001bf4 <divmod_u32u32_savestate>:
10001bf4:	b5f0      	push	{r4, r5, r6, r7, lr}
10001bf6:	6e14      	ldr	r4, [r2, #96]	; 0x60
10001bf8:	6e55      	ldr	r5, [r2, #100]	; 0x64
10001bfa:	6f57      	ldr	r7, [r2, #116]	; 0x74
10001bfc:	6f16      	ldr	r6, [r2, #112]	; 0x70
10001bfe:	f7ff ffe5 	bl	10001bcc <divmod_u32u32_unsafe>
10001c02:	6614      	str	r4, [r2, #96]	; 0x60
10001c04:	6655      	str	r5, [r2, #100]	; 0x64
10001c06:	6757      	str	r7, [r2, #116]	; 0x74
10001c08:	6716      	str	r6, [r2, #112]	; 0x70
10001c0a:	bdf0      	pop	{r4, r5, r6, r7, pc}
10001c0c:	d0000000 	.word	0xd0000000

10001c10 <__aeabi_double_init>:
10001c10:	2313      	movs	r3, #19
10001c12:	b570      	push	{r4, r5, r6, lr}
10001c14:	781d      	ldrb	r5, [r3, #0]
10001c16:	2d01      	cmp	r5, #1
10001c18:	d015      	beq.n	10001c46 <__aeabi_double_init+0x36>
10001c1a:	dd10      	ble.n	10001c3e <__aeabi_double_init+0x2e>
10001c1c:	4827      	ldr	r0, [pc, #156]	; (10001cbc <__aeabi_double_init+0xac>)
10001c1e:	f7ff ffab 	bl	10001b78 <rom_data_lookup>
10001c22:	4c27      	ldr	r4, [pc, #156]	; (10001cc0 <__aeabi_double_init+0xb0>)
10001c24:	0001      	movs	r1, r0
10001c26:	2280      	movs	r2, #128	; 0x80
10001c28:	0020      	movs	r0, r4
10001c2a:	f000 f8e3 	bl	10001df4 <__wrap___aeabi_memcpy>
10001c2e:	2d02      	cmp	r5, #2
10001c30:	d006      	beq.n	10001c40 <__aeabi_double_init+0x30>
10001c32:	4824      	ldr	r0, [pc, #144]	; (10001cc4 <__aeabi_double_init+0xb4>)
10001c34:	f7ff ff98 	bl	10001b68 <rom_func_lookup>
10001c38:	4b23      	ldr	r3, [pc, #140]	; (10001cc8 <__aeabi_double_init+0xb8>)
10001c3a:	6018      	str	r0, [r3, #0]
10001c3c:	bd70      	pop	{r4, r5, r6, pc}
10001c3e:	4c20      	ldr	r4, [pc, #128]	; (10001cc0 <__aeabi_double_init+0xb0>)
10001c40:	4a22      	ldr	r2, [pc, #136]	; (10001ccc <__aeabi_double_init+0xbc>)
10001c42:	64a2      	str	r2, [r4, #72]	; 0x48
10001c44:	e7f5      	b.n	10001c32 <__aeabi_double_init+0x22>
10001c46:	002e      	movs	r6, r5
10001c48:	4c1d      	ldr	r4, [pc, #116]	; (10001cc0 <__aeabi_double_init+0xb0>)
10001c4a:	4a20      	ldr	r2, [pc, #128]	; (10001ccc <__aeabi_double_init+0xbc>)
10001c4c:	08a3      	lsrs	r3, r4, #2
10001c4e:	425b      	negs	r3, r3
10001c50:	401e      	ands	r6, r3
10001c52:	421d      	tst	r5, r3
10001c54:	d02f      	beq.n	10001cb6 <__aeabi_double_init+0xa6>
10001c56:	0033      	movs	r3, r6
10001c58:	6022      	str	r2, [r4, #0]
10001c5a:	2020      	movs	r0, #32
10001c5c:	00b1      	lsls	r1, r6, #2
10001c5e:	1861      	adds	r1, r4, r1
10001c60:	1b80      	subs	r0, r0, r6
10001c62:	600a      	str	r2, [r1, #0]
10001c64:	604a      	str	r2, [r1, #4]
10001c66:	608a      	str	r2, [r1, #8]
10001c68:	60ca      	str	r2, [r1, #12]
10001c6a:	610a      	str	r2, [r1, #16]
10001c6c:	614a      	str	r2, [r1, #20]
10001c6e:	618a      	str	r2, [r1, #24]
10001c70:	61ca      	str	r2, [r1, #28]
10001c72:	620a      	str	r2, [r1, #32]
10001c74:	624a      	str	r2, [r1, #36]	; 0x24
10001c76:	628a      	str	r2, [r1, #40]	; 0x28
10001c78:	62ca      	str	r2, [r1, #44]	; 0x2c
10001c7a:	630a      	str	r2, [r1, #48]	; 0x30
10001c7c:	634a      	str	r2, [r1, #52]	; 0x34
10001c7e:	638a      	str	r2, [r1, #56]	; 0x38
10001c80:	63ca      	str	r2, [r1, #60]	; 0x3c
10001c82:	640a      	str	r2, [r1, #64]	; 0x40
10001c84:	644a      	str	r2, [r1, #68]	; 0x44
10001c86:	648a      	str	r2, [r1, #72]	; 0x48
10001c88:	64ca      	str	r2, [r1, #76]	; 0x4c
10001c8a:	650a      	str	r2, [r1, #80]	; 0x50
10001c8c:	654a      	str	r2, [r1, #84]	; 0x54
10001c8e:	658a      	str	r2, [r1, #88]	; 0x58
10001c90:	65ca      	str	r2, [r1, #92]	; 0x5c
10001c92:	660a      	str	r2, [r1, #96]	; 0x60
10001c94:	664a      	str	r2, [r1, #100]	; 0x64
10001c96:	668a      	str	r2, [r1, #104]	; 0x68
10001c98:	66ca      	str	r2, [r1, #108]	; 0x6c
10001c9a:	670a      	str	r2, [r1, #112]	; 0x70
10001c9c:	674a      	str	r2, [r1, #116]	; 0x74
10001c9e:	0840      	lsrs	r0, r0, #1
10001ca0:	2810      	cmp	r0, #16
10001ca2:	d103      	bne.n	10001cac <__aeabi_double_init+0x9c>
10001ca4:	678a      	str	r2, [r1, #120]	; 0x78
10001ca6:	67ca      	str	r2, [r1, #124]	; 0x7c
10001ca8:	64a2      	str	r2, [r4, #72]	; 0x48
10001caa:	e7c2      	b.n	10001c32 <__aeabi_double_init+0x22>
10001cac:	331e      	adds	r3, #30
10001cae:	009b      	lsls	r3, r3, #2
10001cb0:	50e2      	str	r2, [r4, r3]
10001cb2:	64a2      	str	r2, [r4, #72]	; 0x48
10001cb4:	e7bd      	b.n	10001c32 <__aeabi_double_init+0x22>
10001cb6:	2300      	movs	r3, #0
10001cb8:	e7cf      	b.n	10001c5a <__aeabi_double_init+0x4a>
10001cba:	46c0      	nop			; (mov r8, r8)
10001cbc:	00004453 	.word	0x00004453
10001cc0:	20000ce4 	.word	0x20000ce4
10001cc4:	0000334c 	.word	0x0000334c
10001cc8:	20000cc0 	.word	0x20000cc0
10001ccc:	10001cd1 	.word	0x10001cd1

10001cd0 <double_table_shim_on_use_helper>:
10001cd0:	b507      	push	{r0, r1, r2, lr}
10001cd2:	4660      	mov	r0, ip
10001cd4:	8801      	ldrh	r1, [r0, #0]
10001cd6:	0a0a      	lsrs	r2, r1, #8
10001cd8:	3002      	adds	r0, #2
10001cda:	2adf      	cmp	r2, #223	; 0xdf
10001cdc:	d1fa      	bne.n	10001cd4 <double_table_shim_on_use_helper+0x4>
10001cde:	b2c9      	uxtb	r1, r1
10001ce0:	0882      	lsrs	r2, r0, #2
10001ce2:	d304      	bcc.n	10001cee <double_table_shim_on_use_helper+0x1e>
10001ce4:	8802      	ldrh	r2, [r0, #0]
10001ce6:	8840      	ldrh	r0, [r0, #2]
10001ce8:	0400      	lsls	r0, r0, #16
10001cea:	4310      	orrs	r0, r2
10001cec:	e000      	b.n	10001cf0 <double_table_shim_on_use_helper+0x20>
10001cee:	6800      	ldr	r0, [r0, #0]
10001cf0:	4a01      	ldr	r2, [pc, #4]	; (10001cf8 <double_table_shim_on_use_helper+0x28>)
10001cf2:	5050      	str	r0, [r2, r1]
10001cf4:	9003      	str	r0, [sp, #12]
10001cf6:	bd07      	pop	{r0, r1, r2, pc}
10001cf8:	20000ce4 	.word	0x20000ce4

10001cfc <__wrap___aeabi_lmul>:
10001cfc:	4351      	muls	r1, r2
10001cfe:	4343      	muls	r3, r0
10001d00:	18c9      	adds	r1, r1, r3
10001d02:	468c      	mov	ip, r1
10001d04:	0c11      	lsrs	r1, r2, #16
10001d06:	b283      	uxth	r3, r0
10001d08:	434b      	muls	r3, r1
10001d0a:	b410      	push	{r4}
10001d0c:	0c04      	lsrs	r4, r0, #16
10001d0e:	4361      	muls	r1, r4
10001d10:	b292      	uxth	r2, r2
10001d12:	b280      	uxth	r0, r0
10001d14:	4350      	muls	r0, r2
10001d16:	4362      	muls	r2, r4
10001d18:	041c      	lsls	r4, r3, #16
10001d1a:	0c1b      	lsrs	r3, r3, #16
10001d1c:	1900      	adds	r0, r0, r4
10001d1e:	bc10      	pop	{r4}
10001d20:	4159      	adcs	r1, r3
10001d22:	0413      	lsls	r3, r2, #16
10001d24:	0c12      	lsrs	r2, r2, #16
10001d26:	18c0      	adds	r0, r0, r3
10001d28:	4151      	adcs	r1, r2
10001d2a:	4461      	add	r1, ip
10001d2c:	4770      	bx	lr
	...

10001d30 <__aeabi_float_init>:
10001d30:	2313      	movs	r3, #19
10001d32:	b510      	push	{r4, lr}
10001d34:	4812      	ldr	r0, [pc, #72]	; (10001d80 <__aeabi_float_init+0x50>)
10001d36:	781c      	ldrb	r4, [r3, #0]
10001d38:	f7ff ff1e 	bl	10001b78 <rom_data_lookup>
10001d3c:	0001      	movs	r1, r0
10001d3e:	2c01      	cmp	r4, #1
10001d40:	d00a      	beq.n	10001d58 <__aeabi_float_init+0x28>
10001d42:	dd03      	ble.n	10001d4c <__aeabi_float_init+0x1c>
10001d44:	2280      	movs	r2, #128	; 0x80
10001d46:	480f      	ldr	r0, [pc, #60]	; (10001d84 <__aeabi_float_init+0x54>)
10001d48:	f000 f854 	bl	10001df4 <__wrap___aeabi_memcpy>
10001d4c:	480e      	ldr	r0, [pc, #56]	; (10001d88 <__aeabi_float_init+0x58>)
10001d4e:	f7ff ff0b 	bl	10001b68 <rom_func_lookup>
10001d52:	4b0e      	ldr	r3, [pc, #56]	; (10001d8c <__aeabi_float_init+0x5c>)
10001d54:	6018      	str	r0, [r3, #0]
10001d56:	bd10      	pop	{r4, pc}
10001d58:	4c0a      	ldr	r4, [pc, #40]	; (10001d84 <__aeabi_float_init+0x54>)
10001d5a:	2254      	movs	r2, #84	; 0x54
10001d5c:	0020      	movs	r0, r4
10001d5e:	f000 f849 	bl	10001df4 <__wrap___aeabi_memcpy>
10001d62:	4b0b      	ldr	r3, [pc, #44]	; (10001d90 <__aeabi_float_init+0x60>)
10001d64:	6563      	str	r3, [r4, #84]	; 0x54
10001d66:	65a3      	str	r3, [r4, #88]	; 0x58
10001d68:	65e3      	str	r3, [r4, #92]	; 0x5c
10001d6a:	6623      	str	r3, [r4, #96]	; 0x60
10001d6c:	6663      	str	r3, [r4, #100]	; 0x64
10001d6e:	66a3      	str	r3, [r4, #104]	; 0x68
10001d70:	66e3      	str	r3, [r4, #108]	; 0x6c
10001d72:	6723      	str	r3, [r4, #112]	; 0x70
10001d74:	6763      	str	r3, [r4, #116]	; 0x74
10001d76:	67a3      	str	r3, [r4, #120]	; 0x78
10001d78:	67e3      	str	r3, [r4, #124]	; 0x7c
10001d7a:	6223      	str	r3, [r4, #32]
10001d7c:	61e3      	str	r3, [r4, #28]
10001d7e:	e7e5      	b.n	10001d4c <__aeabi_float_init+0x1c>
10001d80:	00004653 	.word	0x00004653
10001d84:	20000de4 	.word	0x20000de4
10001d88:	0000334c 	.word	0x0000334c
10001d8c:	20000cc0 	.word	0x20000cc0
10001d90:	10001d95 	.word	0x10001d95

10001d94 <float_table_shim_on_use_helper>:
10001d94:	b507      	push	{r0, r1, r2, lr}
10001d96:	4660      	mov	r0, ip
10001d98:	8801      	ldrh	r1, [r0, #0]
10001d9a:	0a0a      	lsrs	r2, r1, #8
10001d9c:	3002      	adds	r0, #2
10001d9e:	2adf      	cmp	r2, #223	; 0xdf
10001da0:	d1fa      	bne.n	10001d98 <float_table_shim_on_use_helper+0x4>
10001da2:	b2c9      	uxtb	r1, r1
10001da4:	0882      	lsrs	r2, r0, #2
10001da6:	d304      	bcc.n	10001db2 <float_table_shim_on_use_helper+0x1e>
10001da8:	8802      	ldrh	r2, [r0, #0]
10001daa:	8840      	ldrh	r0, [r0, #2]
10001dac:	0400      	lsls	r0, r0, #16
10001dae:	4310      	orrs	r0, r2
10001db0:	e000      	b.n	10001db4 <float_table_shim_on_use_helper+0x20>
10001db2:	6800      	ldr	r0, [r0, #0]
10001db4:	4a01      	ldr	r2, [pc, #4]	; (10001dbc <float_table_shim_on_use_helper+0x28>)
10001db6:	5050      	str	r0, [r2, r1]
10001db8:	9003      	str	r0, [sp, #12]
10001dba:	bd07      	pop	{r0, r1, r2, pc}
10001dbc:	20000de4 	.word	0x20000de4

10001dc0 <__wrap_malloc>:
10001dc0:	b510      	push	{r4, lr}
10001dc2:	0004      	movs	r4, r0
10001dc4:	f000 faa8 	bl	10002318 <malloc>
10001dc8:	2800      	cmp	r0, #0
10001dca:	d004      	beq.n	10001dd6 <__wrap_malloc+0x16>
10001dcc:	4b03      	ldr	r3, [pc, #12]	; (10001ddc <__wrap_malloc+0x1c>)
10001dce:	1904      	adds	r4, r0, r4
10001dd0:	429c      	cmp	r4, r3
10001dd2:	d800      	bhi.n	10001dd6 <__wrap_malloc+0x16>
10001dd4:	bd10      	pop	{r4, pc}
10001dd6:	4802      	ldr	r0, [pc, #8]	; (10001de0 <__wrap_malloc+0x20>)
10001dd8:	f7ff fe80 	bl	10001adc <panic>
10001ddc:	20040000 	.word	0x20040000
10001de0:	10002c54 	.word	0x10002c54

10001de4 <__aeabi_mem_init>:
10001de4:	4801      	ldr	r0, [pc, #4]	; (10001dec <__aeabi_mem_init+0x8>)
10001de6:	2104      	movs	r1, #4
10001de8:	4b01      	ldr	r3, [pc, #4]	; (10001df0 <__aeabi_mem_init+0xc>)
10001dea:	4718      	bx	r3
10001dec:	20000240 	.word	0x20000240
10001df0:	10001b89 	.word	0x10001b89

10001df4 <__wrap___aeabi_memcpy>:
10001df4:	4b01      	ldr	r3, [pc, #4]	; (10001dfc <__wrap___aeabi_memcpy+0x8>)
10001df6:	685b      	ldr	r3, [r3, #4]
10001df8:	4718      	bx	r3
10001dfa:	0000      	.short	0x0000
10001dfc:	20000240 	.word	0x20000240

10001e00 <stdio_out_chars_no_crlf>:
10001e00:	0003      	movs	r3, r0
10001e02:	b510      	push	{r4, lr}
10001e04:	0008      	movs	r0, r1
10001e06:	681b      	ldr	r3, [r3, #0]
10001e08:	0011      	movs	r1, r2
10001e0a:	4798      	blx	r3
10001e0c:	bd10      	pop	{r4, pc}
10001e0e:	46c0      	nop			; (mov r8, r8)

10001e10 <stdio_out_chars_crlf>:
10001e10:	b5f8      	push	{r3, r4, r5, r6, r7, lr}
10001e12:	4647      	mov	r7, r8
10001e14:	46ce      	mov	lr, r9
10001e16:	b580      	push	{r7, lr}
10001e18:	7d43      	ldrb	r3, [r0, #21]
10001e1a:	0007      	movs	r7, r0
10001e1c:	000d      	movs	r5, r1
10001e1e:	0016      	movs	r6, r2
10001e20:	2b00      	cmp	r3, #0
10001e22:	d037      	beq.n	10001e94 <stdio_out_chars_crlf+0x84>
10001e24:	2400      	movs	r4, #0
10001e26:	2000      	movs	r0, #0
10001e28:	2a00      	cmp	r2, #0
10001e2a:	dd1e      	ble.n	10001e6a <stdio_out_chars_crlf+0x5a>
10001e2c:	1e4b      	subs	r3, r1, #1
10001e2e:	4698      	mov	r8, r3
10001e30:	4b1b      	ldr	r3, [pc, #108]	; (10001ea0 <stdio_out_chars_crlf+0x90>)
10001e32:	4699      	mov	r9, r3
10001e34:	2c00      	cmp	r4, #0
10001e36:	d02b      	beq.n	10001e90 <stdio_out_chars_crlf+0x80>
10001e38:	4643      	mov	r3, r8
10001e3a:	5d1b      	ldrb	r3, [r3, r4]
10001e3c:	3b0d      	subs	r3, #13
10001e3e:	425a      	negs	r2, r3
10001e40:	4153      	adcs	r3, r2
10001e42:	b2db      	uxtb	r3, r3
10001e44:	5d2a      	ldrb	r2, [r5, r4]
10001e46:	2a0a      	cmp	r2, #10
10001e48:	d013      	beq.n	10001e72 <stdio_out_chars_crlf+0x62>
10001e4a:	3401      	adds	r4, #1
10001e4c:	42a6      	cmp	r6, r4
10001e4e:	dcf1      	bgt.n	10001e34 <stdio_out_chars_crlf+0x24>
10001e50:	4286      	cmp	r6, r0
10001e52:	dd03      	ble.n	10001e5c <stdio_out_chars_crlf+0x4c>
10001e54:	1a31      	subs	r1, r6, r0
10001e56:	683b      	ldr	r3, [r7, #0]
10001e58:	1828      	adds	r0, r5, r0
10001e5a:	4798      	blx	r3
10001e5c:	19ad      	adds	r5, r5, r6
10001e5e:	3d01      	subs	r5, #1
10001e60:	782b      	ldrb	r3, [r5, #0]
10001e62:	3b0d      	subs	r3, #13
10001e64:	425a      	negs	r2, r3
10001e66:	4153      	adcs	r3, r2
10001e68:	753b      	strb	r3, [r7, #20]
10001e6a:	bc0c      	pop	{r2, r3}
10001e6c:	4690      	mov	r8, r2
10001e6e:	4699      	mov	r9, r3
10001e70:	bdf8      	pop	{r3, r4, r5, r6, r7, pc}
10001e72:	2b00      	cmp	r3, #0
10001e74:	d1e9      	bne.n	10001e4a <stdio_out_chars_crlf+0x3a>
10001e76:	42a0      	cmp	r0, r4
10001e78:	da03      	bge.n	10001e82 <stdio_out_chars_crlf+0x72>
10001e7a:	1a21      	subs	r1, r4, r0
10001e7c:	683b      	ldr	r3, [r7, #0]
10001e7e:	1828      	adds	r0, r5, r0
10001e80:	4798      	blx	r3
10001e82:	4648      	mov	r0, r9
10001e84:	2102      	movs	r1, #2
10001e86:	683b      	ldr	r3, [r7, #0]
10001e88:	3401      	adds	r4, #1
10001e8a:	4798      	blx	r3
10001e8c:	0020      	movs	r0, r4
10001e8e:	e7dd      	b.n	10001e4c <stdio_out_chars_crlf+0x3c>
10001e90:	7d3b      	ldrb	r3, [r7, #20]
10001e92:	e7d7      	b.n	10001e44 <stdio_out_chars_crlf+0x34>
10001e94:	6803      	ldr	r3, [r0, #0]
10001e96:	0011      	movs	r1, r2
10001e98:	0028      	movs	r0, r5
10001e9a:	4798      	blx	r3
10001e9c:	e7e5      	b.n	10001e6a <stdio_out_chars_crlf+0x5a>
10001e9e:	46c0      	nop			; (mov r8, r8)
10001ea0:	10002cc4 	.word	0x10002cc4

10001ea4 <stdio_put_string>:
10001ea4:	b5f0      	push	{r4, r5, r6, r7, lr}
10001ea6:	46de      	mov	lr, fp
10001ea8:	4657      	mov	r7, sl
10001eaa:	464e      	mov	r6, r9
10001eac:	4645      	mov	r5, r8
10001eae:	b5e0      	push	{r5, r6, r7, lr}
10001eb0:	b085      	sub	sp, #20
10001eb2:	0017      	movs	r7, r2
10001eb4:	001c      	movs	r4, r3
10001eb6:	0006      	movs	r6, r0
10001eb8:	000d      	movs	r5, r1
10001eba:	f7ff f845 	bl	10000f48 <time_us_64>
10001ebe:	2300      	movs	r3, #0
10001ec0:	4a32      	ldr	r2, [pc, #200]	; (10001f8c <stdio_put_string+0xe8>)
10001ec2:	1812      	adds	r2, r2, r0
10001ec4:	414b      	adcs	r3, r1
10001ec6:	2b00      	cmp	r3, #0
10001ec8:	db5b      	blt.n	10001f82 <stdio_put_string+0xde>
10001eca:	4931      	ldr	r1, [pc, #196]	; (10001f90 <stdio_put_string+0xec>)
10001ecc:	0008      	movs	r0, r1
10001ece:	468a      	mov	sl, r1
10001ed0:	f000 fe96 	bl	10002c00 <__mutex_try_enter_block_until_veneer>
10001ed4:	9001      	str	r0, [sp, #4]
10001ed6:	1c6b      	adds	r3, r5, #1
10001ed8:	d103      	bne.n	10001ee2 <stdio_put_string+0x3e>
10001eda:	0030      	movs	r0, r6
10001edc:	f000 fd0c 	bl	100028f8 <strlen>
10001ee0:	0005      	movs	r5, r0
10001ee2:	2c00      	cmp	r4, #0
10001ee4:	d128      	bne.n	10001f38 <stdio_put_string+0x94>
10001ee6:	4b2b      	ldr	r3, [pc, #172]	; (10001f94 <stdio_put_string+0xf0>)
10001ee8:	4698      	mov	r8, r3
10001eea:	4b2b      	ldr	r3, [pc, #172]	; (10001f98 <stdio_put_string+0xf4>)
10001eec:	681c      	ldr	r4, [r3, #0]
10001eee:	2c00      	cmp	r4, #0
10001ef0:	d015      	beq.n	10001f1e <stdio_put_string+0x7a>
10001ef2:	2f00      	cmp	r7, #0
10001ef4:	d123      	bne.n	10001f3e <stdio_put_string+0x9a>
10001ef6:	4f29      	ldr	r7, [pc, #164]	; (10001f9c <stdio_put_string+0xf8>)
10001ef8:	e002      	b.n	10001f00 <stdio_put_string+0x5c>
10001efa:	6924      	ldr	r4, [r4, #16]
10001efc:	2c00      	cmp	r4, #0
10001efe:	d00e      	beq.n	10001f1e <stdio_put_string+0x7a>
10001f00:	6823      	ldr	r3, [r4, #0]
10001f02:	2b00      	cmp	r3, #0
10001f04:	d0f9      	beq.n	10001efa <stdio_put_string+0x56>
10001f06:	683b      	ldr	r3, [r7, #0]
10001f08:	2b00      	cmp	r3, #0
10001f0a:	d001      	beq.n	10001f10 <stdio_put_string+0x6c>
10001f0c:	42a3      	cmp	r3, r4
10001f0e:	d1f4      	bne.n	10001efa <stdio_put_string+0x56>
10001f10:	0020      	movs	r0, r4
10001f12:	002a      	movs	r2, r5
10001f14:	0031      	movs	r1, r6
10001f16:	47c0      	blx	r8
10001f18:	6924      	ldr	r4, [r4, #16]
10001f1a:	2c00      	cmp	r4, #0
10001f1c:	d1f0      	bne.n	10001f00 <stdio_put_string+0x5c>
10001f1e:	9b01      	ldr	r3, [sp, #4]
10001f20:	2b00      	cmp	r3, #0
10001f22:	d12a      	bne.n	10001f7a <stdio_put_string+0xd6>
10001f24:	1e68      	subs	r0, r5, #1
10001f26:	4185      	sbcs	r5, r0
10001f28:	b2e8      	uxtb	r0, r5
10001f2a:	b005      	add	sp, #20
10001f2c:	bc3c      	pop	{r2, r3, r4, r5}
10001f2e:	4690      	mov	r8, r2
10001f30:	4699      	mov	r9, r3
10001f32:	46a2      	mov	sl, r4
10001f34:	46ab      	mov	fp, r5
10001f36:	bdf0      	pop	{r4, r5, r6, r7, pc}
10001f38:	4b19      	ldr	r3, [pc, #100]	; (10001fa0 <stdio_put_string+0xfc>)
10001f3a:	4698      	mov	r8, r3
10001f3c:	e7d5      	b.n	10001eea <stdio_put_string+0x46>
10001f3e:	4b17      	ldr	r3, [pc, #92]	; (10001f9c <stdio_put_string+0xf8>)
10001f40:	4699      	mov	r9, r3
10001f42:	ab02      	add	r3, sp, #8
10001f44:	1ddf      	adds	r7, r3, #7
10001f46:	230a      	movs	r3, #10
10001f48:	469b      	mov	fp, r3
10001f4a:	e002      	b.n	10001f52 <stdio_put_string+0xae>
10001f4c:	6924      	ldr	r4, [r4, #16]
10001f4e:	2c00      	cmp	r4, #0
10001f50:	d0e5      	beq.n	10001f1e <stdio_put_string+0x7a>
10001f52:	6823      	ldr	r3, [r4, #0]
10001f54:	2b00      	cmp	r3, #0
10001f56:	d0f9      	beq.n	10001f4c <stdio_put_string+0xa8>
10001f58:	464b      	mov	r3, r9
10001f5a:	681b      	ldr	r3, [r3, #0]
10001f5c:	2b00      	cmp	r3, #0
10001f5e:	d001      	beq.n	10001f64 <stdio_put_string+0xc0>
10001f60:	42a3      	cmp	r3, r4
10001f62:	d1f3      	bne.n	10001f4c <stdio_put_string+0xa8>
10001f64:	002a      	movs	r2, r5
10001f66:	0031      	movs	r1, r6
10001f68:	0020      	movs	r0, r4
10001f6a:	47c0      	blx	r8
10001f6c:	465b      	mov	r3, fp
10001f6e:	2201      	movs	r2, #1
10001f70:	0039      	movs	r1, r7
10001f72:	0020      	movs	r0, r4
10001f74:	703b      	strb	r3, [r7, #0]
10001f76:	47c0      	blx	r8
10001f78:	e7e8      	b.n	10001f4c <stdio_put_string+0xa8>
10001f7a:	4650      	mov	r0, sl
10001f7c:	f000 fe30 	bl	10002be0 <__mutex_exit_veneer>
10001f80:	e7d0      	b.n	10001f24 <stdio_put_string+0x80>
10001f82:	2201      	movs	r2, #1
10001f84:	4b07      	ldr	r3, [pc, #28]	; (10001fa4 <stdio_put_string+0x100>)
10001f86:	4252      	negs	r2, r2
10001f88:	e79f      	b.n	10001eca <stdio_put_string+0x26>
10001f8a:	46c0      	nop			; (mov r8, r8)
10001f8c:	000f4240 	.word	0x000f4240
10001f90:	20000ab0 	.word	0x20000ab0
10001f94:	10001e11 	.word	0x10001e11
10001f98:	20000ca0 	.word	0x20000ca0
10001f9c:	20000ca4 	.word	0x20000ca4
10001fa0:	10001e01 	.word	0x10001e01
10001fa4:	7fffffff 	.word	0x7fffffff

10001fa8 <__wrap_putchar>:
10001fa8:	b5f0      	push	{r4, r5, r6, r7, lr}
10001faa:	46ce      	mov	lr, r9
10001fac:	4647      	mov	r7, r8
10001fae:	b580      	push	{r7, lr}
10001fb0:	b083      	sub	sp, #12
10001fb2:	466b      	mov	r3, sp
10001fb4:	0005      	movs	r5, r0
10001fb6:	1dde      	adds	r6, r3, #7
10001fb8:	7030      	strb	r0, [r6, #0]
10001fba:	f7fe ffc5 	bl	10000f48 <time_us_64>
10001fbe:	2300      	movs	r3, #0
10001fc0:	4a1a      	ldr	r2, [pc, #104]	; (1000202c <__wrap_putchar+0x84>)
10001fc2:	1812      	adds	r2, r2, r0
10001fc4:	414b      	adcs	r3, r1
10001fc6:	2b00      	cmp	r3, #0
10001fc8:	db2c      	blt.n	10002024 <__wrap_putchar+0x7c>
10001fca:	4919      	ldr	r1, [pc, #100]	; (10002030 <__wrap_putchar+0x88>)
10001fcc:	0008      	movs	r0, r1
10001fce:	4688      	mov	r8, r1
10001fd0:	f000 fe16 	bl	10002c00 <__mutex_try_enter_block_until_veneer>
10001fd4:	4b17      	ldr	r3, [pc, #92]	; (10002034 <__wrap_putchar+0x8c>)
10001fd6:	0007      	movs	r7, r0
10001fd8:	681c      	ldr	r4, [r3, #0]
10001fda:	2c00      	cmp	r4, #0
10001fdc:	d016      	beq.n	1000200c <__wrap_putchar+0x64>
10001fde:	4b16      	ldr	r3, [pc, #88]	; (10002038 <__wrap_putchar+0x90>)
10001fe0:	4699      	mov	r9, r3
10001fe2:	e002      	b.n	10001fea <__wrap_putchar+0x42>
10001fe4:	6924      	ldr	r4, [r4, #16]
10001fe6:	2c00      	cmp	r4, #0
10001fe8:	d010      	beq.n	1000200c <__wrap_putchar+0x64>
10001fea:	6823      	ldr	r3, [r4, #0]
10001fec:	2b00      	cmp	r3, #0
10001fee:	d0f9      	beq.n	10001fe4 <__wrap_putchar+0x3c>
10001ff0:	464b      	mov	r3, r9
10001ff2:	681b      	ldr	r3, [r3, #0]
10001ff4:	2b00      	cmp	r3, #0
10001ff6:	d001      	beq.n	10001ffc <__wrap_putchar+0x54>
10001ff8:	42a3      	cmp	r3, r4
10001ffa:	d1f3      	bne.n	10001fe4 <__wrap_putchar+0x3c>
10001ffc:	0020      	movs	r0, r4
10001ffe:	2201      	movs	r2, #1
10002000:	0031      	movs	r1, r6
10002002:	f7ff ff05 	bl	10001e10 <stdio_out_chars_crlf>
10002006:	6924      	ldr	r4, [r4, #16]
10002008:	2c00      	cmp	r4, #0
1000200a:	d1ee      	bne.n	10001fea <__wrap_putchar+0x42>
1000200c:	2f00      	cmp	r7, #0
1000200e:	d105      	bne.n	1000201c <__wrap_putchar+0x74>
10002010:	0028      	movs	r0, r5
10002012:	b003      	add	sp, #12
10002014:	bc0c      	pop	{r2, r3}
10002016:	4690      	mov	r8, r2
10002018:	4699      	mov	r9, r3
1000201a:	bdf0      	pop	{r4, r5, r6, r7, pc}
1000201c:	4640      	mov	r0, r8
1000201e:	f000 fddf 	bl	10002be0 <__mutex_exit_veneer>
10002022:	e7f5      	b.n	10002010 <__wrap_putchar+0x68>
10002024:	2201      	movs	r2, #1
10002026:	4b05      	ldr	r3, [pc, #20]	; (1000203c <__wrap_putchar+0x94>)
10002028:	4252      	negs	r2, r2
1000202a:	e7ce      	b.n	10001fca <__wrap_putchar+0x22>
1000202c:	000f4240 	.word	0x000f4240
10002030:	20000ab0 	.word	0x20000ab0
10002034:	20000ca0 	.word	0x20000ca0
10002038:	20000ca4 	.word	0x20000ca4
1000203c:	7fffffff 	.word	0x7fffffff

10002040 <__wrap_puts>:
10002040:	b570      	push	{r4, r5, r6, lr}
10002042:	0004      	movs	r4, r0
10002044:	f000 fc58 	bl	100028f8 <strlen>
10002048:	2300      	movs	r3, #0
1000204a:	0001      	movs	r1, r0
1000204c:	0005      	movs	r5, r0
1000204e:	2201      	movs	r2, #1
10002050:	0020      	movs	r0, r4
10002052:	f7ff ff27 	bl	10001ea4 <stdio_put_string>
10002056:	4b08      	ldr	r3, [pc, #32]	; (10002078 <__wrap_puts+0x38>)
10002058:	681c      	ldr	r4, [r3, #0]
1000205a:	2c00      	cmp	r4, #0
1000205c:	d006      	beq.n	1000206c <__wrap_puts+0x2c>
1000205e:	6863      	ldr	r3, [r4, #4]
10002060:	2b00      	cmp	r3, #0
10002062:	d005      	beq.n	10002070 <__wrap_puts+0x30>
10002064:	4798      	blx	r3
10002066:	6924      	ldr	r4, [r4, #16]
10002068:	2c00      	cmp	r4, #0
1000206a:	d1f8      	bne.n	1000205e <__wrap_puts+0x1e>
1000206c:	0028      	movs	r0, r5
1000206e:	bd70      	pop	{r4, r5, r6, pc}
10002070:	6924      	ldr	r4, [r4, #16]
10002072:	2c00      	cmp	r4, #0
10002074:	d1f3      	bne.n	1000205e <__wrap_puts+0x1e>
10002076:	e7f9      	b.n	1000206c <__wrap_puts+0x2c>
10002078:	20000ca0 	.word	0x20000ca0

1000207c <stdio_set_driver_enabled>:
1000207c:	4a0a      	ldr	r2, [pc, #40]	; (100020a8 <stdio_set_driver_enabled+0x2c>)
1000207e:	6813      	ldr	r3, [r2, #0]
10002080:	2b00      	cmp	r3, #0
10002082:	d105      	bne.n	10002090 <stdio_set_driver_enabled+0x14>
10002084:	e00c      	b.n	100020a0 <stdio_set_driver_enabled+0x24>
10002086:	001a      	movs	r2, r3
10002088:	691b      	ldr	r3, [r3, #16]
1000208a:	3210      	adds	r2, #16
1000208c:	2b00      	cmp	r3, #0
1000208e:	d007      	beq.n	100020a0 <stdio_set_driver_enabled+0x24>
10002090:	4298      	cmp	r0, r3
10002092:	d1f8      	bne.n	10002086 <stdio_set_driver_enabled+0xa>
10002094:	2900      	cmp	r1, #0
10002096:	d102      	bne.n	1000209e <stdio_set_driver_enabled+0x22>
10002098:	6903      	ldr	r3, [r0, #16]
1000209a:	6013      	str	r3, [r2, #0]
1000209c:	6101      	str	r1, [r0, #16]
1000209e:	4770      	bx	lr
100020a0:	2900      	cmp	r1, #0
100020a2:	d0fc      	beq.n	1000209e <stdio_set_driver_enabled+0x22>
100020a4:	6010      	str	r0, [r2, #0]
100020a6:	e7fa      	b.n	1000209e <stdio_set_driver_enabled+0x22>
100020a8:	20000ca0 	.word	0x20000ca0

100020ac <stdio_init_all>:
100020ac:	b510      	push	{r4, lr}
100020ae:	f000 f8c5 	bl	1000223c <stdio_uart_init>
100020b2:	2001      	movs	r0, #1
100020b4:	bd10      	pop	{r4, pc}
100020b6:	46c0      	nop			; (mov r8, r8)

100020b8 <stdio_uart_out_chars>:
100020b8:	b5f0      	push	{r4, r5, r6, r7, lr}
100020ba:	1e0d      	subs	r5, r1, #0
100020bc:	dd15      	ble.n	100020ea <stdio_uart_out_chars+0x32>
100020be:	4b0e      	ldr	r3, [pc, #56]	; (100020f8 <stdio_uart_out_chars+0x40>)
100020c0:	270d      	movs	r7, #13
100020c2:	681a      	ldr	r2, [r3, #0]
100020c4:	4b0d      	ldr	r3, [pc, #52]	; (100020fc <stdio_uart_out_chars+0x44>)
100020c6:	1945      	adds	r5, r0, r5
100020c8:	18d3      	adds	r3, r2, r3
100020ca:	4259      	negs	r1, r3
100020cc:	414b      	adcs	r3, r1
100020ce:	490c      	ldr	r1, [pc, #48]	; (10002100 <stdio_uart_out_chars+0x48>)
100020d0:	005b      	lsls	r3, r3, #1
100020d2:	5e5e      	ldrsh	r6, [r3, r1]
100020d4:	2120      	movs	r1, #32
100020d6:	7804      	ldrb	r4, [r0, #0]
100020d8:	42a6      	cmp	r6, r4
100020da:	d007      	beq.n	100020ec <stdio_uart_out_chars+0x34>
100020dc:	6993      	ldr	r3, [r2, #24]
100020de:	4219      	tst	r1, r3
100020e0:	d1fc      	bne.n	100020dc <stdio_uart_out_chars+0x24>
100020e2:	3001      	adds	r0, #1
100020e4:	6014      	str	r4, [r2, #0]
100020e6:	42a8      	cmp	r0, r5
100020e8:	d1f5      	bne.n	100020d6 <stdio_uart_out_chars+0x1e>
100020ea:	bdf0      	pop	{r4, r5, r6, r7, pc}
100020ec:	6993      	ldr	r3, [r2, #24]
100020ee:	4219      	tst	r1, r3
100020f0:	d1fc      	bne.n	100020ec <stdio_uart_out_chars+0x34>
100020f2:	6017      	str	r7, [r2, #0]
100020f4:	e7f2      	b.n	100020dc <stdio_uart_out_chars+0x24>
100020f6:	46c0      	nop			; (mov r8, r8)
100020f8:	20000cd8 	.word	0x20000cd8
100020fc:	bffc8000 	.word	0xbffc8000
10002100:	20000ce0 	.word	0x20000ce0

10002104 <stdio_uart_in_chars>:
10002104:	b530      	push	{r4, r5, lr}
10002106:	0005      	movs	r5, r0
10002108:	2900      	cmp	r1, #0
1000210a:	dd26      	ble.n	1000215a <stdio_uart_in_chars+0x56>
1000210c:	2000      	movs	r0, #0
1000210e:	2410      	movs	r4, #16
10002110:	4b1b      	ldr	r3, [pc, #108]	; (10002180 <stdio_uart_in_chars+0x7c>)
10002112:	3d01      	subs	r5, #1
10002114:	681a      	ldr	r2, [r3, #0]
10002116:	6993      	ldr	r3, [r2, #24]
10002118:	421c      	tst	r4, r3
1000211a:	d119      	bne.n	10002150 <stdio_uart_in_chars+0x4c>
1000211c:	3001      	adds	r0, #1
1000211e:	6993      	ldr	r3, [r2, #24]
10002120:	421c      	tst	r4, r3
10002122:	d1fc      	bne.n	1000211e <stdio_uart_in_chars+0x1a>
10002124:	6813      	ldr	r3, [r2, #0]
10002126:	542b      	strb	r3, [r5, r0]
10002128:	4281      	cmp	r1, r0
1000212a:	d1f4      	bne.n	10002116 <stdio_uart_in_chars+0x12>
1000212c:	4b15      	ldr	r3, [pc, #84]	; (10002184 <stdio_uart_in_chars+0x80>)
1000212e:	681b      	ldr	r3, [r3, #0]
10002130:	2b00      	cmp	r3, #0
10002132:	d00c      	beq.n	1000214e <stdio_uart_in_chars+0x4a>
10002134:	2350      	movs	r3, #80	; 0x50
10002136:	6393      	str	r3, [r2, #56]	; 0x38
10002138:	6b51      	ldr	r1, [r2, #52]	; 0x34
1000213a:	3b18      	subs	r3, #24
1000213c:	3234      	adds	r2, #52	; 0x34
1000213e:	400b      	ands	r3, r1
10002140:	0011      	movs	r1, r2
10002142:	2280      	movs	r2, #128	; 0x80
10002144:	0152      	lsls	r2, r2, #5
10002146:	430a      	orrs	r2, r1
10002148:	6013      	str	r3, [r2, #0]
1000214a:	2800      	cmp	r0, #0
1000214c:	d015      	beq.n	1000217a <stdio_uart_in_chars+0x76>
1000214e:	bd30      	pop	{r4, r5, pc}
10002150:	4b0c      	ldr	r3, [pc, #48]	; (10002184 <stdio_uart_in_chars+0x80>)
10002152:	681b      	ldr	r3, [r3, #0]
10002154:	2b00      	cmp	r3, #0
10002156:	d1ed      	bne.n	10002134 <stdio_uart_in_chars+0x30>
10002158:	e7f7      	b.n	1000214a <stdio_uart_in_chars+0x46>
1000215a:	4b0a      	ldr	r3, [pc, #40]	; (10002184 <stdio_uart_in_chars+0x80>)
1000215c:	681b      	ldr	r3, [r3, #0]
1000215e:	2b00      	cmp	r3, #0
10002160:	d00b      	beq.n	1000217a <stdio_uart_in_chars+0x76>
10002162:	2250      	movs	r2, #80	; 0x50
10002164:	2138      	movs	r1, #56	; 0x38
10002166:	4b06      	ldr	r3, [pc, #24]	; (10002180 <stdio_uart_in_chars+0x7c>)
10002168:	681b      	ldr	r3, [r3, #0]
1000216a:	639a      	str	r2, [r3, #56]	; 0x38
1000216c:	6b5a      	ldr	r2, [r3, #52]	; 0x34
1000216e:	3334      	adds	r3, #52	; 0x34
10002170:	4011      	ands	r1, r2
10002172:	2280      	movs	r2, #128	; 0x80
10002174:	0152      	lsls	r2, r2, #5
10002176:	4313      	orrs	r3, r2
10002178:	6019      	str	r1, [r3, #0]
1000217a:	2003      	movs	r0, #3
1000217c:	4240      	negs	r0, r0
1000217e:	e7e6      	b.n	1000214e <stdio_uart_in_chars+0x4a>
10002180:	20000cd8 	.word	0x20000cd8
10002184:	20000c30 	.word	0x20000c30

10002188 <on_uart_rx>:
10002188:	4b06      	ldr	r3, [pc, #24]	; (100021a4 <on_uart_rx+0x1c>)
1000218a:	b510      	push	{r4, lr}
1000218c:	681b      	ldr	r3, [r3, #0]
1000218e:	2b00      	cmp	r3, #0
10002190:	d006      	beq.n	100021a0 <on_uart_rx+0x18>
10002192:	2100      	movs	r1, #0
10002194:	4a04      	ldr	r2, [pc, #16]	; (100021a8 <on_uart_rx+0x20>)
10002196:	6812      	ldr	r2, [r2, #0]
10002198:	6391      	str	r1, [r2, #56]	; 0x38
1000219a:	4a04      	ldr	r2, [pc, #16]	; (100021ac <on_uart_rx+0x24>)
1000219c:	6810      	ldr	r0, [r2, #0]
1000219e:	4798      	blx	r3
100021a0:	bd10      	pop	{r4, pc}
100021a2:	46c0      	nop			; (mov r8, r8)
100021a4:	20000c30 	.word	0x20000c30
100021a8:	20000cd8 	.word	0x20000cd8
100021ac:	20000c34 	.word	0x20000c34

100021b0 <stdio_uart_set_chars_available_callback>:
100021b0:	4b1d      	ldr	r3, [pc, #116]	; (10002228 <stdio_uart_set_chars_available_callback+0x78>)
100021b2:	b5f0      	push	{r4, r5, r6, r7, lr}
100021b4:	681a      	ldr	r2, [r3, #0]
100021b6:	46c6      	mov	lr, r8
100021b8:	4698      	mov	r8, r3
100021ba:	4b1c      	ldr	r3, [pc, #112]	; (1000222c <stdio_uart_set_chars_available_callback+0x7c>)
100021bc:	000e      	movs	r6, r1
100021be:	18d3      	adds	r3, r2, r3
100021c0:	4259      	negs	r1, r3
100021c2:	414b      	adcs	r3, r1
100021c4:	4f1a      	ldr	r7, [pc, #104]	; (10002230 <stdio_uart_set_chars_available_callback+0x80>)
100021c6:	3314      	adds	r3, #20
100021c8:	001c      	movs	r4, r3
100021ca:	0005      	movs	r5, r0
100021cc:	b500      	push	{lr}
100021ce:	683b      	ldr	r3, [r7, #0]
100021d0:	2800      	cmp	r0, #0
100021d2:	d007      	beq.n	100021e4 <stdio_uart_set_chars_available_callback+0x34>
100021d4:	2b00      	cmp	r3, #0
100021d6:	d011      	beq.n	100021fc <stdio_uart_set_chars_available_callback+0x4c>
100021d8:	4b16      	ldr	r3, [pc, #88]	; (10002234 <stdio_uart_set_chars_available_callback+0x84>)
100021da:	603d      	str	r5, [r7, #0]
100021dc:	601e      	str	r6, [r3, #0]
100021de:	bc04      	pop	{r2}
100021e0:	4690      	mov	r8, r2
100021e2:	bdf0      	pop	{r4, r5, r6, r7, pc}
100021e4:	2b00      	cmp	r3, #0
100021e6:	d0f7      	beq.n	100021d8 <stdio_uart_set_chars_available_callback+0x28>
100021e8:	6390      	str	r0, [r2, #56]	; 0x38
100021ea:	2100      	movs	r1, #0
100021ec:	0020      	movs	r0, r4
100021ee:	f7fe f91f 	bl	10000430 <irq_set_enabled>
100021f2:	0020      	movs	r0, r4
100021f4:	4910      	ldr	r1, [pc, #64]	; (10002238 <stdio_uart_set_chars_available_callback+0x88>)
100021f6:	f7fe f95f 	bl	100004b8 <irq_remove_handler>
100021fa:	e7ed      	b.n	100021d8 <stdio_uart_set_chars_available_callback+0x28>
100021fc:	0020      	movs	r0, r4
100021fe:	490e      	ldr	r1, [pc, #56]	; (10002238 <stdio_uart_set_chars_available_callback+0x88>)
10002200:	f7fe f930 	bl	10000464 <irq_set_exclusive_handler>
10002204:	2101      	movs	r1, #1
10002206:	0020      	movs	r0, r4
10002208:	f7fe f912 	bl	10000430 <irq_set_enabled>
1000220c:	4643      	mov	r3, r8
1000220e:	2250      	movs	r2, #80	; 0x50
10002210:	2138      	movs	r1, #56	; 0x38
10002212:	681b      	ldr	r3, [r3, #0]
10002214:	639a      	str	r2, [r3, #56]	; 0x38
10002216:	6b5a      	ldr	r2, [r3, #52]	; 0x34
10002218:	3334      	adds	r3, #52	; 0x34
1000221a:	4011      	ands	r1, r2
1000221c:	2280      	movs	r2, #128	; 0x80
1000221e:	0152      	lsls	r2, r2, #5
10002220:	4313      	orrs	r3, r2
10002222:	6019      	str	r1, [r3, #0]
10002224:	e7d8      	b.n	100021d8 <stdio_uart_set_chars_available_callback+0x28>
10002226:	46c0      	nop			; (mov r8, r8)
10002228:	20000cd8 	.word	0x20000cd8
1000222c:	bffc8000 	.word	0xbffc8000
10002230:	20000c30 	.word	0x20000c30
10002234:	20000c34 	.word	0x20000c34
10002238:	10002189 	.word	0x10002189

1000223c <stdio_uart_init>:
1000223c:	b510      	push	{r4, lr}
1000223e:	4b0c      	ldr	r3, [pc, #48]	; (10002270 <stdio_uart_init+0x34>)
10002240:	4c0c      	ldr	r4, [pc, #48]	; (10002274 <stdio_uart_init+0x38>)
10002242:	781b      	ldrb	r3, [r3, #0]
10002244:	4b0c      	ldr	r3, [pc, #48]	; (10002278 <stdio_uart_init+0x3c>)
10002246:	2102      	movs	r1, #2
10002248:	781b      	ldrb	r3, [r3, #0]
1000224a:	4b0c      	ldr	r3, [pc, #48]	; (1000227c <stdio_uart_init+0x40>)
1000224c:	2000      	movs	r0, #0
1000224e:	6023      	str	r3, [r4, #0]
10002250:	f7fe f890 	bl	10000374 <gpio_set_function>
10002254:	2102      	movs	r1, #2
10002256:	2001      	movs	r0, #1
10002258:	f7fe f88c 	bl	10000374 <gpio_set_function>
1000225c:	21e1      	movs	r1, #225	; 0xe1
1000225e:	6820      	ldr	r0, [r4, #0]
10002260:	0249      	lsls	r1, r1, #9
10002262:	f7ff f95d 	bl	10001520 <uart_init>
10002266:	2101      	movs	r1, #1
10002268:	4805      	ldr	r0, [pc, #20]	; (10002280 <stdio_uart_init+0x44>)
1000226a:	f7ff ff07 	bl	1000207c <stdio_set_driver_enabled>
1000226e:	bd10      	pop	{r4, pc}
10002270:	10002d24 	.word	0x10002d24
10002274:	20000cd8 	.word	0x20000cd8
10002278:	10002d28 	.word	0x10002d28
1000227c:	40034000 	.word	0x40034000
10002280:	20000250 	.word	0x20000250

10002284 <init_sht31d>:
10002284:	b510      	push	{r4, lr}
10002286:	0004      	movs	r4, r0
10002288:	2010      	movs	r0, #16
1000228a:	f7ff fd99 	bl	10001dc0 <__wrap_malloc>
1000228e:	2300      	movs	r3, #0
10002290:	6003      	str	r3, [r0, #0]
10002292:	6043      	str	r3, [r0, #4]
10002294:	2300      	movs	r3, #0
10002296:	8103      	strh	r3, [r0, #8]
10002298:	60c4      	str	r4, [r0, #12]
1000229a:	bd10      	pop	{r4, pc}

1000229c <on_uart_rx>:
1000229c:	4a0a      	ldr	r2, [pc, #40]	; (100022c8 <on_uart_rx+0x2c>)
1000229e:	b510      	push	{r4, lr}
100022a0:	6993      	ldr	r3, [r2, #24]
100022a2:	06db      	lsls	r3, r3, #27
100022a4:	d40e      	bmi.n	100022c4 <on_uart_rx+0x28>
100022a6:	2900      	cmp	r1, #0
100022a8:	dd0c      	ble.n	100022c4 <on_uart_rx+0x28>
100022aa:	1844      	adds	r4, r0, r1
100022ac:	2110      	movs	r1, #16
100022ae:	6993      	ldr	r3, [r2, #24]
100022b0:	4219      	tst	r1, r3
100022b2:	d1fc      	bne.n	100022ae <on_uart_rx+0x12>
100022b4:	6813      	ldr	r3, [r2, #0]
100022b6:	7003      	strb	r3, [r0, #0]
100022b8:	6993      	ldr	r3, [r2, #24]
100022ba:	4219      	tst	r1, r3
100022bc:	d102      	bne.n	100022c4 <on_uart_rx+0x28>
100022be:	3001      	adds	r0, #1
100022c0:	42a0      	cmp	r0, r4
100022c2:	d1f4      	bne.n	100022ae <on_uart_rx+0x12>
100022c4:	bd10      	pop	{r4, pc}
100022c6:	46c0      	nop			; (mov r8, r8)
100022c8:	40034000 	.word	0x40034000

100022cc <open_sp_radio>:
100022cc:	21e1      	movs	r1, #225	; 0xe1
100022ce:	b510      	push	{r4, lr}
100022d0:	4c0e      	ldr	r4, [pc, #56]	; (1000230c <open_sp_radio+0x40>)
100022d2:	0249      	lsls	r1, r1, #9
100022d4:	0020      	movs	r0, r4
100022d6:	f7ff f923 	bl	10001520 <uart_init>
100022da:	2102      	movs	r1, #2
100022dc:	2000      	movs	r0, #0
100022de:	f7fe f849 	bl	10000374 <gpio_set_function>
100022e2:	2102      	movs	r1, #2
100022e4:	2001      	movs	r0, #1
100022e6:	f7fe f845 	bl	10000374 <gpio_set_function>
100022ea:	0020      	movs	r0, r4
100022ec:	4908      	ldr	r1, [pc, #32]	; (10002310 <open_sp_radio+0x44>)
100022ee:	f7fe f8b9 	bl	10000464 <irq_set_exclusive_handler>
100022f2:	0020      	movs	r0, r4
100022f4:	2101      	movs	r1, #1
100022f6:	f7fe f89b 	bl	10000430 <irq_set_enabled>
100022fa:	2350      	movs	r3, #80	; 0x50
100022fc:	63a3      	str	r3, [r4, #56]	; 0x38
100022fe:	6b62      	ldr	r2, [r4, #52]	; 0x34
10002300:	3b18      	subs	r3, #24
10002302:	4013      	ands	r3, r2
10002304:	4a03      	ldr	r2, [pc, #12]	; (10002314 <open_sp_radio+0x48>)
10002306:	2001      	movs	r0, #1
10002308:	6013      	str	r3, [r2, #0]
1000230a:	bd10      	pop	{r4, pc}
1000230c:	40034000 	.word	0x40034000
10002310:	1000229d 	.word	0x1000229d
10002314:	40035034 	.word	0x40035034

10002318 <malloc>:
10002318:	b510      	push	{r4, lr}
1000231a:	4b03      	ldr	r3, [pc, #12]	; (10002328 <malloc+0x10>)
1000231c:	0001      	movs	r1, r0
1000231e:	6818      	ldr	r0, [r3, #0]
10002320:	f000 f80e 	bl	10002340 <_malloc_r>
10002324:	bd10      	pop	{r4, pc}
10002326:	46c0      	nop			; (mov r8, r8)
10002328:	20000270 	.word	0x20000270

1000232c <free>:
1000232c:	b510      	push	{r4, lr}
1000232e:	4b03      	ldr	r3, [pc, #12]	; (1000233c <free+0x10>)
10002330:	0001      	movs	r1, r0
10002332:	6818      	ldr	r0, [r3, #0]
10002334:	f000 fb64 	bl	10002a00 <_free_r>
10002338:	bd10      	pop	{r4, pc}
1000233a:	46c0      	nop			; (mov r8, r8)
1000233c:	20000270 	.word	0x20000270

10002340 <_malloc_r>:
10002340:	b5f0      	push	{r4, r5, r6, r7, lr}
10002342:	4657      	mov	r7, sl
10002344:	4645      	mov	r5, r8
10002346:	46de      	mov	lr, fp
10002348:	464e      	mov	r6, r9
1000234a:	b5e0      	push	{r5, r6, r7, lr}
1000234c:	000d      	movs	r5, r1
1000234e:	350b      	adds	r5, #11
10002350:	b083      	sub	sp, #12
10002352:	0007      	movs	r7, r0
10002354:	2d16      	cmp	r5, #22
10002356:	d822      	bhi.n	1000239e <_malloc_r+0x5e>
10002358:	2910      	cmp	r1, #16
1000235a:	d900      	bls.n	1000235e <_malloc_r+0x1e>
1000235c:	e0bb      	b.n	100024d6 <_malloc_r+0x196>
1000235e:	f000 fab5 	bl	100028cc <__malloc_lock>
10002362:	2510      	movs	r5, #16
10002364:	2318      	movs	r3, #24
10002366:	2002      	movs	r0, #2
10002368:	4ed1      	ldr	r6, [pc, #836]	; (100026b0 <_malloc_r+0x370>)
1000236a:	18f3      	adds	r3, r6, r3
1000236c:	001a      	movs	r2, r3
1000236e:	685c      	ldr	r4, [r3, #4]
10002370:	3a08      	subs	r2, #8
10002372:	4294      	cmp	r4, r2
10002374:	d100      	bne.n	10002378 <_malloc_r+0x38>
10002376:	e0be      	b.n	100024f6 <_malloc_r+0x1b6>
10002378:	2303      	movs	r3, #3
1000237a:	6862      	ldr	r2, [r4, #4]
1000237c:	439a      	bics	r2, r3
1000237e:	0013      	movs	r3, r2
10002380:	68e2      	ldr	r2, [r4, #12]
10002382:	68a1      	ldr	r1, [r4, #8]
10002384:	60ca      	str	r2, [r1, #12]
10002386:	6091      	str	r1, [r2, #8]
10002388:	2201      	movs	r2, #1
1000238a:	18e3      	adds	r3, r4, r3
1000238c:	6859      	ldr	r1, [r3, #4]
1000238e:	0038      	movs	r0, r7
10002390:	430a      	orrs	r2, r1
10002392:	605a      	str	r2, [r3, #4]
10002394:	f000 fa9c 	bl	100028d0 <__malloc_unlock>
10002398:	0020      	movs	r0, r4
1000239a:	3008      	adds	r0, #8
1000239c:	e09e      	b.n	100024dc <_malloc_r+0x19c>
1000239e:	2307      	movs	r3, #7
100023a0:	439d      	bics	r5, r3
100023a2:	d500      	bpl.n	100023a6 <_malloc_r+0x66>
100023a4:	e097      	b.n	100024d6 <_malloc_r+0x196>
100023a6:	42a9      	cmp	r1, r5
100023a8:	d900      	bls.n	100023ac <_malloc_r+0x6c>
100023aa:	e094      	b.n	100024d6 <_malloc_r+0x196>
100023ac:	f000 fa8e 	bl	100028cc <__malloc_lock>
100023b0:	23f8      	movs	r3, #248	; 0xf8
100023b2:	33ff      	adds	r3, #255	; 0xff
100023b4:	429d      	cmp	r5, r3
100023b6:	d800      	bhi.n	100023ba <_malloc_r+0x7a>
100023b8:	e1ad      	b.n	10002716 <_malloc_r+0x3d6>
100023ba:	0a68      	lsrs	r0, r5, #9
100023bc:	d100      	bne.n	100023c0 <_malloc_r+0x80>
100023be:	e094      	b.n	100024ea <_malloc_r+0x1aa>
100023c0:	2804      	cmp	r0, #4
100023c2:	d900      	bls.n	100023c6 <_malloc_r+0x86>
100023c4:	e180      	b.n	100026c8 <_malloc_r+0x388>
100023c6:	2338      	movs	r3, #56	; 0x38
100023c8:	4698      	mov	r8, r3
100023ca:	09a8      	lsrs	r0, r5, #6
100023cc:	4480      	add	r8, r0
100023ce:	3039      	adds	r0, #57	; 0x39
100023d0:	00c1      	lsls	r1, r0, #3
100023d2:	4eb7      	ldr	r6, [pc, #732]	; (100026b0 <_malloc_r+0x370>)
100023d4:	1871      	adds	r1, r6, r1
100023d6:	3908      	subs	r1, #8
100023d8:	68cc      	ldr	r4, [r1, #12]
100023da:	42a1      	cmp	r1, r4
100023dc:	d018      	beq.n	10002410 <_malloc_r+0xd0>
100023de:	2303      	movs	r3, #3
100023e0:	6862      	ldr	r2, [r4, #4]
100023e2:	439a      	bics	r2, r3
100023e4:	0013      	movs	r3, r2
100023e6:	1b52      	subs	r2, r2, r5
100023e8:	2a0f      	cmp	r2, #15
100023ea:	dd00      	ble.n	100023ee <_malloc_r+0xae>
100023ec:	e136      	b.n	1000265c <_malloc_r+0x31c>
100023ee:	2a00      	cmp	r2, #0
100023f0:	dac6      	bge.n	10002380 <_malloc_r+0x40>
100023f2:	2303      	movs	r3, #3
100023f4:	469c      	mov	ip, r3
100023f6:	e008      	b.n	1000240a <_malloc_r+0xca>
100023f8:	4662      	mov	r2, ip
100023fa:	6863      	ldr	r3, [r4, #4]
100023fc:	4393      	bics	r3, r2
100023fe:	1b5a      	subs	r2, r3, r5
10002400:	2a0f      	cmp	r2, #15
10002402:	dd00      	ble.n	10002406 <_malloc_r+0xc6>
10002404:	e12a      	b.n	1000265c <_malloc_r+0x31c>
10002406:	2a00      	cmp	r2, #0
10002408:	daba      	bge.n	10002380 <_malloc_r+0x40>
1000240a:	68e4      	ldr	r4, [r4, #12]
1000240c:	42a1      	cmp	r1, r4
1000240e:	d1f3      	bne.n	100023f8 <_malloc_r+0xb8>
10002410:	0032      	movs	r2, r6
10002412:	6934      	ldr	r4, [r6, #16]
10002414:	3208      	adds	r2, #8
10002416:	4294      	cmp	r4, r2
10002418:	d100      	bne.n	1000241c <_malloc_r+0xdc>
1000241a:	e077      	b.n	1000250c <_malloc_r+0x1cc>
1000241c:	2303      	movs	r3, #3
1000241e:	6861      	ldr	r1, [r4, #4]
10002420:	4399      	bics	r1, r3
10002422:	4689      	mov	r9, r1
10002424:	000b      	movs	r3, r1
10002426:	1b49      	subs	r1, r1, r5
10002428:	290f      	cmp	r1, #15
1000242a:	dd00      	ble.n	1000242e <_malloc_r+0xee>
1000242c:	e177      	b.n	1000271e <_malloc_r+0x3de>
1000242e:	6172      	str	r2, [r6, #20]
10002430:	6132      	str	r2, [r6, #16]
10002432:	2900      	cmp	r1, #0
10002434:	daa8      	bge.n	10002388 <_malloc_r+0x48>
10002436:	4a9f      	ldr	r2, [pc, #636]	; (100026b4 <_malloc_r+0x374>)
10002438:	4591      	cmp	r9, r2
1000243a:	d900      	bls.n	1000243e <_malloc_r+0xfe>
1000243c:	e110      	b.n	10002660 <_malloc_r+0x320>
1000243e:	08da      	lsrs	r2, r3, #3
10002440:	2301      	movs	r3, #1
10002442:	1091      	asrs	r1, r2, #2
10002444:	408b      	lsls	r3, r1
10002446:	00d2      	lsls	r2, r2, #3
10002448:	6871      	ldr	r1, [r6, #4]
1000244a:	1992      	adds	r2, r2, r6
1000244c:	430b      	orrs	r3, r1
1000244e:	6891      	ldr	r1, [r2, #8]
10002450:	6073      	str	r3, [r6, #4]
10002452:	60e2      	str	r2, [r4, #12]
10002454:	60a1      	str	r1, [r4, #8]
10002456:	6094      	str	r4, [r2, #8]
10002458:	60cc      	str	r4, [r1, #12]
1000245a:	2101      	movs	r1, #1
1000245c:	1082      	asrs	r2, r0, #2
1000245e:	4091      	lsls	r1, r2
10002460:	4299      	cmp	r1, r3
10002462:	d859      	bhi.n	10002518 <_malloc_r+0x1d8>
10002464:	420b      	tst	r3, r1
10002466:	d105      	bne.n	10002474 <_malloc_r+0x134>
10002468:	2203      	movs	r2, #3
1000246a:	4390      	bics	r0, r2
1000246c:	0049      	lsls	r1, r1, #1
1000246e:	3004      	adds	r0, #4
10002470:	420b      	tst	r3, r1
10002472:	d0fb      	beq.n	1000246c <_malloc_r+0x12c>
10002474:	2303      	movs	r3, #3
10002476:	4698      	mov	r8, r3
10002478:	00c3      	lsls	r3, r0, #3
1000247a:	4699      	mov	r9, r3
1000247c:	44b1      	add	r9, r6
1000247e:	46cc      	mov	ip, r9
10002480:	4682      	mov	sl, r0
10002482:	4663      	mov	r3, ip
10002484:	68dc      	ldr	r4, [r3, #12]
10002486:	45a4      	cmp	ip, r4
10002488:	d107      	bne.n	1000249a <_malloc_r+0x15a>
1000248a:	e129      	b.n	100026e0 <_malloc_r+0x3a0>
1000248c:	2a00      	cmp	r2, #0
1000248e:	db00      	blt.n	10002492 <_malloc_r+0x152>
10002490:	e132      	b.n	100026f8 <_malloc_r+0x3b8>
10002492:	68e4      	ldr	r4, [r4, #12]
10002494:	45a4      	cmp	ip, r4
10002496:	d100      	bne.n	1000249a <_malloc_r+0x15a>
10002498:	e122      	b.n	100026e0 <_malloc_r+0x3a0>
1000249a:	4642      	mov	r2, r8
1000249c:	6863      	ldr	r3, [r4, #4]
1000249e:	4393      	bics	r3, r2
100024a0:	1b5a      	subs	r2, r3, r5
100024a2:	2a0f      	cmp	r2, #15
100024a4:	ddf2      	ble.n	1000248c <_malloc_r+0x14c>
100024a6:	2001      	movs	r0, #1
100024a8:	4680      	mov	r8, r0
100024aa:	1961      	adds	r1, r4, r5
100024ac:	4305      	orrs	r5, r0
100024ae:	6065      	str	r5, [r4, #4]
100024b0:	68a0      	ldr	r0, [r4, #8]
100024b2:	68e5      	ldr	r5, [r4, #12]
100024b4:	3608      	adds	r6, #8
100024b6:	60c5      	str	r5, [r0, #12]
100024b8:	60a8      	str	r0, [r5, #8]
100024ba:	4640      	mov	r0, r8
100024bc:	60f1      	str	r1, [r6, #12]
100024be:	60b1      	str	r1, [r6, #8]
100024c0:	4310      	orrs	r0, r2
100024c2:	6048      	str	r0, [r1, #4]
100024c4:	60ce      	str	r6, [r1, #12]
100024c6:	608e      	str	r6, [r1, #8]
100024c8:	0038      	movs	r0, r7
100024ca:	50e2      	str	r2, [r4, r3]
100024cc:	f000 fa00 	bl	100028d0 <__malloc_unlock>
100024d0:	0020      	movs	r0, r4
100024d2:	3008      	adds	r0, #8
100024d4:	e002      	b.n	100024dc <_malloc_r+0x19c>
100024d6:	230c      	movs	r3, #12
100024d8:	2000      	movs	r0, #0
100024da:	603b      	str	r3, [r7, #0]
100024dc:	b003      	add	sp, #12
100024de:	bc3c      	pop	{r2, r3, r4, r5}
100024e0:	4690      	mov	r8, r2
100024e2:	4699      	mov	r9, r3
100024e4:	46a2      	mov	sl, r4
100024e6:	46ab      	mov	fp, r5
100024e8:	bdf0      	pop	{r4, r5, r6, r7, pc}
100024ea:	2180      	movs	r1, #128	; 0x80
100024ec:	233f      	movs	r3, #63	; 0x3f
100024ee:	0089      	lsls	r1, r1, #2
100024f0:	2040      	movs	r0, #64	; 0x40
100024f2:	4698      	mov	r8, r3
100024f4:	e76d      	b.n	100023d2 <_malloc_r+0x92>
100024f6:	68dc      	ldr	r4, [r3, #12]
100024f8:	3002      	adds	r0, #2
100024fa:	42a3      	cmp	r3, r4
100024fc:	d000      	beq.n	10002500 <_malloc_r+0x1c0>
100024fe:	e73b      	b.n	10002378 <_malloc_r+0x38>
10002500:	0032      	movs	r2, r6
10002502:	6934      	ldr	r4, [r6, #16]
10002504:	3208      	adds	r2, #8
10002506:	4294      	cmp	r4, r2
10002508:	d000      	beq.n	1000250c <_malloc_r+0x1cc>
1000250a:	e787      	b.n	1000241c <_malloc_r+0xdc>
1000250c:	2101      	movs	r1, #1
1000250e:	6873      	ldr	r3, [r6, #4]
10002510:	1082      	asrs	r2, r0, #2
10002512:	4091      	lsls	r1, r2
10002514:	4299      	cmp	r1, r3
10002516:	d9a5      	bls.n	10002464 <_malloc_r+0x124>
10002518:	2303      	movs	r3, #3
1000251a:	68b4      	ldr	r4, [r6, #8]
1000251c:	6862      	ldr	r2, [r4, #4]
1000251e:	439a      	bics	r2, r3
10002520:	4690      	mov	r8, r2
10002522:	42aa      	cmp	r2, r5
10002524:	d303      	bcc.n	1000252e <_malloc_r+0x1ee>
10002526:	1b53      	subs	r3, r2, r5
10002528:	2b0f      	cmp	r3, #15
1000252a:	dd00      	ble.n	1000252e <_malloc_r+0x1ee>
1000252c:	e088      	b.n	10002640 <_malloc_r+0x300>
1000252e:	0023      	movs	r3, r4
10002530:	4443      	add	r3, r8
10002532:	4a61      	ldr	r2, [pc, #388]	; (100026b8 <_malloc_r+0x378>)
10002534:	9301      	str	r3, [sp, #4]
10002536:	4b61      	ldr	r3, [pc, #388]	; (100026bc <_malloc_r+0x37c>)
10002538:	4693      	mov	fp, r2
1000253a:	469a      	mov	sl, r3
1000253c:	6812      	ldr	r2, [r2, #0]
1000253e:	681b      	ldr	r3, [r3, #0]
10002540:	18eb      	adds	r3, r5, r3
10002542:	3201      	adds	r2, #1
10002544:	d100      	bne.n	10002548 <_malloc_r+0x208>
10002546:	e139      	b.n	100027bc <_malloc_r+0x47c>
10002548:	4a5d      	ldr	r2, [pc, #372]	; (100026c0 <_malloc_r+0x380>)
1000254a:	4694      	mov	ip, r2
1000254c:	4463      	add	r3, ip
1000254e:	0b1b      	lsrs	r3, r3, #12
10002550:	031b      	lsls	r3, r3, #12
10002552:	9300      	str	r3, [sp, #0]
10002554:	9900      	ldr	r1, [sp, #0]
10002556:	0038      	movs	r0, r7
10002558:	f000 f9bc 	bl	100028d4 <_sbrk_r>
1000255c:	0003      	movs	r3, r0
1000255e:	4681      	mov	r9, r0
10002560:	3301      	adds	r3, #1
10002562:	d100      	bne.n	10002566 <_malloc_r+0x226>
10002564:	e0f6      	b.n	10002754 <_malloc_r+0x414>
10002566:	9b01      	ldr	r3, [sp, #4]
10002568:	4283      	cmp	r3, r0
1000256a:	d900      	bls.n	1000256e <_malloc_r+0x22e>
1000256c:	e0f0      	b.n	10002750 <_malloc_r+0x410>
1000256e:	4651      	mov	r1, sl
10002570:	6849      	ldr	r1, [r1, #4]
10002572:	9b00      	ldr	r3, [sp, #0]
10002574:	468c      	mov	ip, r1
10002576:	4651      	mov	r1, sl
10002578:	4463      	add	r3, ip
1000257a:	604b      	str	r3, [r1, #4]
1000257c:	9901      	ldr	r1, [sp, #4]
1000257e:	001a      	movs	r2, r3
10002580:	4549      	cmp	r1, r9
10002582:	d100      	bne.n	10002586 <_malloc_r+0x246>
10002584:	e14f      	b.n	10002826 <_malloc_r+0x4e6>
10002586:	465b      	mov	r3, fp
10002588:	681b      	ldr	r3, [r3, #0]
1000258a:	3301      	adds	r3, #1
1000258c:	d100      	bne.n	10002590 <_malloc_r+0x250>
1000258e:	e154      	b.n	1000283a <_malloc_r+0x4fa>
10002590:	464b      	mov	r3, r9
10002592:	9901      	ldr	r1, [sp, #4]
10002594:	1a5b      	subs	r3, r3, r1
10002596:	189a      	adds	r2, r3, r2
10002598:	4653      	mov	r3, sl
1000259a:	605a      	str	r2, [r3, #4]
1000259c:	2307      	movs	r3, #7
1000259e:	464a      	mov	r2, r9
100025a0:	401a      	ands	r2, r3
100025a2:	9201      	str	r2, [sp, #4]
100025a4:	d100      	bne.n	100025a8 <_malloc_r+0x268>
100025a6:	e113      	b.n	100027d0 <_malloc_r+0x490>
100025a8:	2108      	movs	r1, #8
100025aa:	464b      	mov	r3, r9
100025ac:	4689      	mov	r9, r1
100025ae:	1a9b      	subs	r3, r3, r2
100025b0:	4499      	add	r9, r3
100025b2:	9900      	ldr	r1, [sp, #0]
100025b4:	4b43      	ldr	r3, [pc, #268]	; (100026c4 <_malloc_r+0x384>)
100025b6:	4449      	add	r1, r9
100025b8:	1a9b      	subs	r3, r3, r2
100025ba:	1a5b      	subs	r3, r3, r1
100025bc:	051b      	lsls	r3, r3, #20
100025be:	0d1b      	lsrs	r3, r3, #20
100025c0:	9100      	str	r1, [sp, #0]
100025c2:	0038      	movs	r0, r7
100025c4:	0019      	movs	r1, r3
100025c6:	469b      	mov	fp, r3
100025c8:	f000 f984 	bl	100028d4 <_sbrk_r>
100025cc:	1c43      	adds	r3, r0, #1
100025ce:	d100      	bne.n	100025d2 <_malloc_r+0x292>
100025d0:	e14f      	b.n	10002872 <_malloc_r+0x532>
100025d2:	464b      	mov	r3, r9
100025d4:	1ac0      	subs	r0, r0, r3
100025d6:	0003      	movs	r3, r0
100025d8:	445b      	add	r3, fp
100025da:	9300      	str	r3, [sp, #0]
100025dc:	4653      	mov	r3, sl
100025de:	4652      	mov	r2, sl
100025e0:	685b      	ldr	r3, [r3, #4]
100025e2:	2101      	movs	r1, #1
100025e4:	445b      	add	r3, fp
100025e6:	6053      	str	r3, [r2, #4]
100025e8:	464a      	mov	r2, r9
100025ea:	4648      	mov	r0, r9
100025ec:	60b2      	str	r2, [r6, #8]
100025ee:	9a00      	ldr	r2, [sp, #0]
100025f0:	430a      	orrs	r2, r1
100025f2:	6042      	str	r2, [r0, #4]
100025f4:	42b4      	cmp	r4, r6
100025f6:	d100      	bne.n	100025fa <_malloc_r+0x2ba>
100025f8:	e123      	b.n	10002842 <_malloc_r+0x502>
100025fa:	4642      	mov	r2, r8
100025fc:	2a0f      	cmp	r2, #15
100025fe:	d800      	bhi.n	10002602 <_malloc_r+0x2c2>
10002600:	e121      	b.n	10002846 <_malloc_r+0x506>
10002602:	2007      	movs	r0, #7
10002604:	3a0c      	subs	r2, #12
10002606:	4382      	bics	r2, r0
10002608:	6860      	ldr	r0, [r4, #4]
1000260a:	4001      	ands	r1, r0
1000260c:	2005      	movs	r0, #5
1000260e:	4311      	orrs	r1, r2
10002610:	6061      	str	r1, [r4, #4]
10002612:	18a1      	adds	r1, r4, r2
10002614:	6048      	str	r0, [r1, #4]
10002616:	6088      	str	r0, [r1, #8]
10002618:	2a0f      	cmp	r2, #15
1000261a:	d900      	bls.n	1000261e <_malloc_r+0x2de>
1000261c:	e134      	b.n	10002888 <_malloc_r+0x548>
1000261e:	464a      	mov	r2, r9
10002620:	464c      	mov	r4, r9
10002622:	6852      	ldr	r2, [r2, #4]
10002624:	4651      	mov	r1, sl
10002626:	6ac9      	ldr	r1, [r1, #44]	; 0x2c
10002628:	4299      	cmp	r1, r3
1000262a:	d201      	bcs.n	10002630 <_malloc_r+0x2f0>
1000262c:	4651      	mov	r1, sl
1000262e:	62cb      	str	r3, [r1, #44]	; 0x2c
10002630:	4651      	mov	r1, sl
10002632:	6b09      	ldr	r1, [r1, #48]	; 0x30
10002634:	4299      	cmp	r1, r3
10002636:	d300      	bcc.n	1000263a <_malloc_r+0x2fa>
10002638:	e08e      	b.n	10002758 <_malloc_r+0x418>
1000263a:	4651      	mov	r1, sl
1000263c:	630b      	str	r3, [r1, #48]	; 0x30
1000263e:	e08b      	b.n	10002758 <_malloc_r+0x418>
10002640:	2201      	movs	r2, #1
10002642:	0029      	movs	r1, r5
10002644:	4313      	orrs	r3, r2
10002646:	4311      	orrs	r1, r2
10002648:	1965      	adds	r5, r4, r5
1000264a:	6061      	str	r1, [r4, #4]
1000264c:	0038      	movs	r0, r7
1000264e:	60b5      	str	r5, [r6, #8]
10002650:	606b      	str	r3, [r5, #4]
10002652:	f000 f93d 	bl	100028d0 <__malloc_unlock>
10002656:	0020      	movs	r0, r4
10002658:	3008      	adds	r0, #8
1000265a:	e73f      	b.n	100024dc <_malloc_r+0x19c>
1000265c:	4640      	mov	r0, r8
1000265e:	e6d7      	b.n	10002410 <_malloc_r+0xd0>
10002660:	0a5a      	lsrs	r2, r3, #9
10002662:	2a04      	cmp	r2, #4
10002664:	d96e      	bls.n	10002744 <_malloc_r+0x404>
10002666:	2a14      	cmp	r2, #20
10002668:	d900      	bls.n	1000266c <_malloc_r+0x32c>
1000266a:	e0c1      	b.n	100027f0 <_malloc_r+0x4b0>
1000266c:	0011      	movs	r1, r2
1000266e:	325c      	adds	r2, #92	; 0x5c
10002670:	315b      	adds	r1, #91	; 0x5b
10002672:	00d2      	lsls	r2, r2, #3
10002674:	2308      	movs	r3, #8
10002676:	425b      	negs	r3, r3
10002678:	469c      	mov	ip, r3
1000267a:	18b2      	adds	r2, r6, r2
1000267c:	4494      	add	ip, r2
1000267e:	4663      	mov	r3, ip
10002680:	689a      	ldr	r2, [r3, #8]
10002682:	2303      	movs	r3, #3
10002684:	4698      	mov	r8, r3
10002686:	4594      	cmp	ip, r2
10002688:	d100      	bne.n	1000268c <_malloc_r+0x34c>
1000268a:	e09a      	b.n	100027c2 <_malloc_r+0x482>
1000268c:	4643      	mov	r3, r8
1000268e:	6851      	ldr	r1, [r2, #4]
10002690:	4399      	bics	r1, r3
10002692:	4549      	cmp	r1, r9
10002694:	d902      	bls.n	1000269c <_malloc_r+0x35c>
10002696:	6892      	ldr	r2, [r2, #8]
10002698:	4594      	cmp	ip, r2
1000269a:	d1f7      	bne.n	1000268c <_malloc_r+0x34c>
1000269c:	68d3      	ldr	r3, [r2, #12]
1000269e:	469c      	mov	ip, r3
100026a0:	6873      	ldr	r3, [r6, #4]
100026a2:	4661      	mov	r1, ip
100026a4:	60a2      	str	r2, [r4, #8]
100026a6:	60e1      	str	r1, [r4, #12]
100026a8:	608c      	str	r4, [r1, #8]
100026aa:	60d4      	str	r4, [r2, #12]
100026ac:	e6d5      	b.n	1000245a <_malloc_r+0x11a>
100026ae:	46c0      	nop			; (mov r8, r8)
100026b0:	200006a8 	.word	0x200006a8
100026b4:	000001ff 	.word	0x000001ff
100026b8:	200006a0 	.word	0x200006a0
100026bc:	20000bec 	.word	0x20000bec
100026c0:	0000100f 	.word	0x0000100f
100026c4:	00001008 	.word	0x00001008
100026c8:	2814      	cmp	r0, #20
100026ca:	d952      	bls.n	10002772 <_malloc_r+0x432>
100026cc:	2854      	cmp	r0, #84	; 0x54
100026ce:	d900      	bls.n	100026d2 <_malloc_r+0x392>
100026d0:	e096      	b.n	10002800 <_malloc_r+0x4c0>
100026d2:	236e      	movs	r3, #110	; 0x6e
100026d4:	4698      	mov	r8, r3
100026d6:	0b28      	lsrs	r0, r5, #12
100026d8:	4480      	add	r8, r0
100026da:	306f      	adds	r0, #111	; 0x6f
100026dc:	00c1      	lsls	r1, r0, #3
100026de:	e678      	b.n	100023d2 <_malloc_r+0x92>
100026e0:	2308      	movs	r3, #8
100026e2:	469b      	mov	fp, r3
100026e4:	3b07      	subs	r3, #7
100026e6:	44dc      	add	ip, fp
100026e8:	469b      	mov	fp, r3
100026ea:	44da      	add	sl, fp
100026ec:	4643      	mov	r3, r8
100026ee:	4652      	mov	r2, sl
100026f0:	4213      	tst	r3, r2
100026f2:	d000      	beq.n	100026f6 <_malloc_r+0x3b6>
100026f4:	e6c5      	b.n	10002482 <_malloc_r+0x142>
100026f6:	e04c      	b.n	10002792 <_malloc_r+0x452>
100026f8:	2201      	movs	r2, #1
100026fa:	18e3      	adds	r3, r4, r3
100026fc:	6859      	ldr	r1, [r3, #4]
100026fe:	0038      	movs	r0, r7
10002700:	430a      	orrs	r2, r1
10002702:	605a      	str	r2, [r3, #4]
10002704:	68e3      	ldr	r3, [r4, #12]
10002706:	68a2      	ldr	r2, [r4, #8]
10002708:	60d3      	str	r3, [r2, #12]
1000270a:	609a      	str	r2, [r3, #8]
1000270c:	f000 f8e0 	bl	100028d0 <__malloc_unlock>
10002710:	0020      	movs	r0, r4
10002712:	3008      	adds	r0, #8
10002714:	e6e2      	b.n	100024dc <_malloc_r+0x19c>
10002716:	002b      	movs	r3, r5
10002718:	08e8      	lsrs	r0, r5, #3
1000271a:	3308      	adds	r3, #8
1000271c:	e624      	b.n	10002368 <_malloc_r+0x28>
1000271e:	2301      	movs	r3, #1
10002720:	1960      	adds	r0, r4, r5
10002722:	431d      	orrs	r5, r3
10002724:	6065      	str	r5, [r4, #4]
10002726:	6170      	str	r0, [r6, #20]
10002728:	6130      	str	r0, [r6, #16]
1000272a:	60c2      	str	r2, [r0, #12]
1000272c:	6082      	str	r2, [r0, #8]
1000272e:	001a      	movs	r2, r3
10002730:	464b      	mov	r3, r9
10002732:	430a      	orrs	r2, r1
10002734:	6042      	str	r2, [r0, #4]
10002736:	0038      	movs	r0, r7
10002738:	50e1      	str	r1, [r4, r3]
1000273a:	f000 f8c9 	bl	100028d0 <__malloc_unlock>
1000273e:	0020      	movs	r0, r4
10002740:	3008      	adds	r0, #8
10002742:	e6cb      	b.n	100024dc <_malloc_r+0x19c>
10002744:	099a      	lsrs	r2, r3, #6
10002746:	0011      	movs	r1, r2
10002748:	3239      	adds	r2, #57	; 0x39
1000274a:	3138      	adds	r1, #56	; 0x38
1000274c:	00d2      	lsls	r2, r2, #3
1000274e:	e791      	b.n	10002674 <_malloc_r+0x334>
10002750:	42b4      	cmp	r4, r6
10002752:	d060      	beq.n	10002816 <_malloc_r+0x4d6>
10002754:	68b4      	ldr	r4, [r6, #8]
10002756:	6862      	ldr	r2, [r4, #4]
10002758:	2303      	movs	r3, #3
1000275a:	439a      	bics	r2, r3
1000275c:	1b53      	subs	r3, r2, r5
1000275e:	42aa      	cmp	r2, r5
10002760:	d302      	bcc.n	10002768 <_malloc_r+0x428>
10002762:	2b0f      	cmp	r3, #15
10002764:	dd00      	ble.n	10002768 <_malloc_r+0x428>
10002766:	e76b      	b.n	10002640 <_malloc_r+0x300>
10002768:	0038      	movs	r0, r7
1000276a:	f000 f8b1 	bl	100028d0 <__malloc_unlock>
1000276e:	2000      	movs	r0, #0
10002770:	e6b4      	b.n	100024dc <_malloc_r+0x19c>
10002772:	235b      	movs	r3, #91	; 0x5b
10002774:	4698      	mov	r8, r3
10002776:	4480      	add	r8, r0
10002778:	305c      	adds	r0, #92	; 0x5c
1000277a:	00c1      	lsls	r1, r0, #3
1000277c:	e629      	b.n	100023d2 <_malloc_r+0x92>
1000277e:	2308      	movs	r3, #8
10002780:	425b      	negs	r3, r3
10002782:	469c      	mov	ip, r3
10002784:	44e1      	add	r9, ip
10002786:	464b      	mov	r3, r9
10002788:	689b      	ldr	r3, [r3, #8]
1000278a:	3801      	subs	r0, #1
1000278c:	454b      	cmp	r3, r9
1000278e:	d000      	beq.n	10002792 <_malloc_r+0x452>
10002790:	e097      	b.n	100028c2 <_malloc_r+0x582>
10002792:	4643      	mov	r3, r8
10002794:	4203      	tst	r3, r0
10002796:	d1f2      	bne.n	1000277e <_malloc_r+0x43e>
10002798:	6873      	ldr	r3, [r6, #4]
1000279a:	438b      	bics	r3, r1
1000279c:	6073      	str	r3, [r6, #4]
1000279e:	0049      	lsls	r1, r1, #1
100027a0:	4299      	cmp	r1, r3
100027a2:	d900      	bls.n	100027a6 <_malloc_r+0x466>
100027a4:	e6b8      	b.n	10002518 <_malloc_r+0x1d8>
100027a6:	2900      	cmp	r1, #0
100027a8:	d104      	bne.n	100027b4 <_malloc_r+0x474>
100027aa:	e6b5      	b.n	10002518 <_malloc_r+0x1d8>
100027ac:	2204      	movs	r2, #4
100027ae:	4694      	mov	ip, r2
100027b0:	0049      	lsls	r1, r1, #1
100027b2:	44e2      	add	sl, ip
100027b4:	420b      	tst	r3, r1
100027b6:	d0f9      	beq.n	100027ac <_malloc_r+0x46c>
100027b8:	4650      	mov	r0, sl
100027ba:	e65d      	b.n	10002478 <_malloc_r+0x138>
100027bc:	3310      	adds	r3, #16
100027be:	9300      	str	r3, [sp, #0]
100027c0:	e6c8      	b.n	10002554 <_malloc_r+0x214>
100027c2:	1089      	asrs	r1, r1, #2
100027c4:	3b02      	subs	r3, #2
100027c6:	408b      	lsls	r3, r1
100027c8:	6871      	ldr	r1, [r6, #4]
100027ca:	430b      	orrs	r3, r1
100027cc:	6073      	str	r3, [r6, #4]
100027ce:	e768      	b.n	100026a2 <_malloc_r+0x362>
100027d0:	9b00      	ldr	r3, [sp, #0]
100027d2:	0038      	movs	r0, r7
100027d4:	444b      	add	r3, r9
100027d6:	051b      	lsls	r3, r3, #20
100027d8:	425b      	negs	r3, r3
100027da:	0d1b      	lsrs	r3, r3, #20
100027dc:	0019      	movs	r1, r3
100027de:	469b      	mov	fp, r3
100027e0:	f000 f878 	bl	100028d4 <_sbrk_r>
100027e4:	1c43      	adds	r3, r0, #1
100027e6:	d000      	beq.n	100027ea <_malloc_r+0x4aa>
100027e8:	e6f3      	b.n	100025d2 <_malloc_r+0x292>
100027ea:	2300      	movs	r3, #0
100027ec:	469b      	mov	fp, r3
100027ee:	e6f5      	b.n	100025dc <_malloc_r+0x29c>
100027f0:	2a54      	cmp	r2, #84	; 0x54
100027f2:	d82a      	bhi.n	1000284a <_malloc_r+0x50a>
100027f4:	0b1a      	lsrs	r2, r3, #12
100027f6:	0011      	movs	r1, r2
100027f8:	326f      	adds	r2, #111	; 0x6f
100027fa:	316e      	adds	r1, #110	; 0x6e
100027fc:	00d2      	lsls	r2, r2, #3
100027fe:	e739      	b.n	10002674 <_malloc_r+0x334>
10002800:	23aa      	movs	r3, #170	; 0xaa
10002802:	005b      	lsls	r3, r3, #1
10002804:	4298      	cmp	r0, r3
10002806:	d82a      	bhi.n	1000285e <_malloc_r+0x51e>
10002808:	3bdd      	subs	r3, #221	; 0xdd
1000280a:	4698      	mov	r8, r3
1000280c:	0be8      	lsrs	r0, r5, #15
1000280e:	4480      	add	r8, r0
10002810:	3078      	adds	r0, #120	; 0x78
10002812:	00c1      	lsls	r1, r0, #3
10002814:	e5dd      	b.n	100023d2 <_malloc_r+0x92>
10002816:	4653      	mov	r3, sl
10002818:	685b      	ldr	r3, [r3, #4]
1000281a:	9a00      	ldr	r2, [sp, #0]
1000281c:	469c      	mov	ip, r3
1000281e:	4653      	mov	r3, sl
10002820:	4462      	add	r2, ip
10002822:	605a      	str	r2, [r3, #4]
10002824:	e6af      	b.n	10002586 <_malloc_r+0x246>
10002826:	0509      	lsls	r1, r1, #20
10002828:	d000      	beq.n	1000282c <_malloc_r+0x4ec>
1000282a:	e6ac      	b.n	10002586 <_malloc_r+0x246>
1000282c:	9a00      	ldr	r2, [sp, #0]
1000282e:	68b4      	ldr	r4, [r6, #8]
10002830:	4442      	add	r2, r8
10002832:	3101      	adds	r1, #1
10002834:	430a      	orrs	r2, r1
10002836:	6062      	str	r2, [r4, #4]
10002838:	e6f4      	b.n	10002624 <_malloc_r+0x2e4>
1000283a:	465b      	mov	r3, fp
1000283c:	464a      	mov	r2, r9
1000283e:	601a      	str	r2, [r3, #0]
10002840:	e6ac      	b.n	1000259c <_malloc_r+0x25c>
10002842:	464c      	mov	r4, r9
10002844:	e6ee      	b.n	10002624 <_malloc_r+0x2e4>
10002846:	6041      	str	r1, [r0, #4]
10002848:	e78e      	b.n	10002768 <_malloc_r+0x428>
1000284a:	21aa      	movs	r1, #170	; 0xaa
1000284c:	0049      	lsls	r1, r1, #1
1000284e:	428a      	cmp	r2, r1
10002850:	d824      	bhi.n	1000289c <_malloc_r+0x55c>
10002852:	0bda      	lsrs	r2, r3, #15
10002854:	0011      	movs	r1, r2
10002856:	3278      	adds	r2, #120	; 0x78
10002858:	3177      	adds	r1, #119	; 0x77
1000285a:	00d2      	lsls	r2, r2, #3
1000285c:	e70a      	b.n	10002674 <_malloc_r+0x334>
1000285e:	4b1a      	ldr	r3, [pc, #104]	; (100028c8 <_malloc_r+0x588>)
10002860:	4298      	cmp	r0, r3
10002862:	d824      	bhi.n	100028ae <_malloc_r+0x56e>
10002864:	237c      	movs	r3, #124	; 0x7c
10002866:	4698      	mov	r8, r3
10002868:	0ca8      	lsrs	r0, r5, #18
1000286a:	4480      	add	r8, r0
1000286c:	307d      	adds	r0, #125	; 0x7d
1000286e:	00c1      	lsls	r1, r0, #3
10002870:	e5af      	b.n	100023d2 <_malloc_r+0x92>
10002872:	9a00      	ldr	r2, [sp, #0]
10002874:	9b01      	ldr	r3, [sp, #4]
10002876:	4694      	mov	ip, r2
10002878:	464a      	mov	r2, r9
1000287a:	3b08      	subs	r3, #8
1000287c:	4463      	add	r3, ip
1000287e:	1a9b      	subs	r3, r3, r2
10002880:	9300      	str	r3, [sp, #0]
10002882:	2300      	movs	r3, #0
10002884:	469b      	mov	fp, r3
10002886:	e6a9      	b.n	100025dc <_malloc_r+0x29c>
10002888:	0021      	movs	r1, r4
1000288a:	0038      	movs	r0, r7
1000288c:	3108      	adds	r1, #8
1000288e:	f000 f8b7 	bl	10002a00 <_free_r>
10002892:	4653      	mov	r3, sl
10002894:	68b4      	ldr	r4, [r6, #8]
10002896:	685b      	ldr	r3, [r3, #4]
10002898:	6862      	ldr	r2, [r4, #4]
1000289a:	e6c3      	b.n	10002624 <_malloc_r+0x2e4>
1000289c:	490a      	ldr	r1, [pc, #40]	; (100028c8 <_malloc_r+0x588>)
1000289e:	428a      	cmp	r2, r1
100028a0:	d80b      	bhi.n	100028ba <_malloc_r+0x57a>
100028a2:	0c9a      	lsrs	r2, r3, #18
100028a4:	0011      	movs	r1, r2
100028a6:	327d      	adds	r2, #125	; 0x7d
100028a8:	317c      	adds	r1, #124	; 0x7c
100028aa:	00d2      	lsls	r2, r2, #3
100028ac:	e6e2      	b.n	10002674 <_malloc_r+0x334>
100028ae:	21fe      	movs	r1, #254	; 0xfe
100028b0:	237e      	movs	r3, #126	; 0x7e
100028b2:	0089      	lsls	r1, r1, #2
100028b4:	207f      	movs	r0, #127	; 0x7f
100028b6:	4698      	mov	r8, r3
100028b8:	e58b      	b.n	100023d2 <_malloc_r+0x92>
100028ba:	22fe      	movs	r2, #254	; 0xfe
100028bc:	217e      	movs	r1, #126	; 0x7e
100028be:	0092      	lsls	r2, r2, #2
100028c0:	e6d8      	b.n	10002674 <_malloc_r+0x334>
100028c2:	6873      	ldr	r3, [r6, #4]
100028c4:	e76b      	b.n	1000279e <_malloc_r+0x45e>
100028c6:	46c0      	nop			; (mov r8, r8)
100028c8:	00000554 	.word	0x00000554

100028cc <__malloc_lock>:
100028cc:	4770      	bx	lr
100028ce:	46c0      	nop			; (mov r8, r8)

100028d0 <__malloc_unlock>:
100028d0:	4770      	bx	lr
100028d2:	46c0      	nop			; (mov r8, r8)

100028d4 <_sbrk_r>:
100028d4:	2300      	movs	r3, #0
100028d6:	b570      	push	{r4, r5, r6, lr}
100028d8:	4c06      	ldr	r4, [pc, #24]	; (100028f4 <_sbrk_r+0x20>)
100028da:	0005      	movs	r5, r0
100028dc:	0008      	movs	r0, r1
100028de:	6023      	str	r3, [r4, #0]
100028e0:	f7ff f8de 	bl	10001aa0 <_sbrk>
100028e4:	1c43      	adds	r3, r0, #1
100028e6:	d000      	beq.n	100028ea <_sbrk_r+0x16>
100028e8:	bd70      	pop	{r4, r5, r6, pc}
100028ea:	6823      	ldr	r3, [r4, #0]
100028ec:	2b00      	cmp	r3, #0
100028ee:	d0fb      	beq.n	100028e8 <_sbrk_r+0x14>
100028f0:	602b      	str	r3, [r5, #0]
100028f2:	e7f9      	b.n	100028e8 <_sbrk_r+0x14>
100028f4:	20000ee4 	.word	0x20000ee4

100028f8 <strlen>:
100028f8:	b510      	push	{r4, lr}
100028fa:	0783      	lsls	r3, r0, #30
100028fc:	d027      	beq.n	1000294e <strlen+0x56>
100028fe:	7803      	ldrb	r3, [r0, #0]
10002900:	2b00      	cmp	r3, #0
10002902:	d026      	beq.n	10002952 <strlen+0x5a>
10002904:	0003      	movs	r3, r0
10002906:	2103      	movs	r1, #3
10002908:	e002      	b.n	10002910 <strlen+0x18>
1000290a:	781a      	ldrb	r2, [r3, #0]
1000290c:	2a00      	cmp	r2, #0
1000290e:	d01c      	beq.n	1000294a <strlen+0x52>
10002910:	3301      	adds	r3, #1
10002912:	420b      	tst	r3, r1
10002914:	d1f9      	bne.n	1000290a <strlen+0x12>
10002916:	6819      	ldr	r1, [r3, #0]
10002918:	4a0f      	ldr	r2, [pc, #60]	; (10002958 <strlen+0x60>)
1000291a:	4c10      	ldr	r4, [pc, #64]	; (1000295c <strlen+0x64>)
1000291c:	188a      	adds	r2, r1, r2
1000291e:	438a      	bics	r2, r1
10002920:	4222      	tst	r2, r4
10002922:	d10f      	bne.n	10002944 <strlen+0x4c>
10002924:	3304      	adds	r3, #4
10002926:	6819      	ldr	r1, [r3, #0]
10002928:	4a0b      	ldr	r2, [pc, #44]	; (10002958 <strlen+0x60>)
1000292a:	188a      	adds	r2, r1, r2
1000292c:	438a      	bics	r2, r1
1000292e:	4222      	tst	r2, r4
10002930:	d108      	bne.n	10002944 <strlen+0x4c>
10002932:	3304      	adds	r3, #4
10002934:	6819      	ldr	r1, [r3, #0]
10002936:	4a08      	ldr	r2, [pc, #32]	; (10002958 <strlen+0x60>)
10002938:	188a      	adds	r2, r1, r2
1000293a:	438a      	bics	r2, r1
1000293c:	4222      	tst	r2, r4
1000293e:	d0f1      	beq.n	10002924 <strlen+0x2c>
10002940:	e000      	b.n	10002944 <strlen+0x4c>
10002942:	3301      	adds	r3, #1
10002944:	781a      	ldrb	r2, [r3, #0]
10002946:	2a00      	cmp	r2, #0
10002948:	d1fb      	bne.n	10002942 <strlen+0x4a>
1000294a:	1a18      	subs	r0, r3, r0
1000294c:	bd10      	pop	{r4, pc}
1000294e:	0003      	movs	r3, r0
10002950:	e7e1      	b.n	10002916 <strlen+0x1e>
10002952:	2000      	movs	r0, #0
10002954:	e7fa      	b.n	1000294c <strlen+0x54>
10002956:	46c0      	nop			; (mov r8, r8)
10002958:	fefefeff 	.word	0xfefefeff
1000295c:	80808080 	.word	0x80808080

10002960 <_malloc_trim_r>:
10002960:	b5f8      	push	{r3, r4, r5, r6, r7, lr}
10002962:	000c      	movs	r4, r1
10002964:	0006      	movs	r6, r0
10002966:	f7ff ffb1 	bl	100028cc <__malloc_lock>
1000296a:	4f20      	ldr	r7, [pc, #128]	; (100029ec <_malloc_trim_r+0x8c>)
1000296c:	68bb      	ldr	r3, [r7, #8]
1000296e:	685d      	ldr	r5, [r3, #4]
10002970:	2303      	movs	r3, #3
10002972:	439d      	bics	r5, r3
10002974:	4b1e      	ldr	r3, [pc, #120]	; (100029f0 <_malloc_trim_r+0x90>)
10002976:	1b2c      	subs	r4, r5, r4
10002978:	469c      	mov	ip, r3
1000297a:	4464      	add	r4, ip
1000297c:	0b24      	lsrs	r4, r4, #12
1000297e:	4b1d      	ldr	r3, [pc, #116]	; (100029f4 <_malloc_trim_r+0x94>)
10002980:	3c01      	subs	r4, #1
10002982:	0324      	lsls	r4, r4, #12
10002984:	429c      	cmp	r4, r3
10002986:	dd07      	ble.n	10002998 <_malloc_trim_r+0x38>
10002988:	2100      	movs	r1, #0
1000298a:	0030      	movs	r0, r6
1000298c:	f7ff ffa2 	bl	100028d4 <_sbrk_r>
10002990:	68bb      	ldr	r3, [r7, #8]
10002992:	195b      	adds	r3, r3, r5
10002994:	4298      	cmp	r0, r3
10002996:	d004      	beq.n	100029a2 <_malloc_trim_r+0x42>
10002998:	0030      	movs	r0, r6
1000299a:	f7ff ff99 	bl	100028d0 <__malloc_unlock>
1000299e:	2000      	movs	r0, #0
100029a0:	bdf8      	pop	{r3, r4, r5, r6, r7, pc}
100029a2:	4261      	negs	r1, r4
100029a4:	0030      	movs	r0, r6
100029a6:	f7ff ff95 	bl	100028d4 <_sbrk_r>
100029aa:	1c43      	adds	r3, r0, #1
100029ac:	d00d      	beq.n	100029ca <_malloc_trim_r+0x6a>
100029ae:	2201      	movs	r2, #1
100029b0:	68bb      	ldr	r3, [r7, #8]
100029b2:	1b2d      	subs	r5, r5, r4
100029b4:	4315      	orrs	r5, r2
100029b6:	605d      	str	r5, [r3, #4]
100029b8:	4b0f      	ldr	r3, [pc, #60]	; (100029f8 <_malloc_trim_r+0x98>)
100029ba:	0030      	movs	r0, r6
100029bc:	681a      	ldr	r2, [r3, #0]
100029be:	1b14      	subs	r4, r2, r4
100029c0:	601c      	str	r4, [r3, #0]
100029c2:	f7ff ff85 	bl	100028d0 <__malloc_unlock>
100029c6:	2001      	movs	r0, #1
100029c8:	e7ea      	b.n	100029a0 <_malloc_trim_r+0x40>
100029ca:	2100      	movs	r1, #0
100029cc:	0030      	movs	r0, r6
100029ce:	f7ff ff81 	bl	100028d4 <_sbrk_r>
100029d2:	68ba      	ldr	r2, [r7, #8]
100029d4:	1a83      	subs	r3, r0, r2
100029d6:	2b0f      	cmp	r3, #15
100029d8:	ddde      	ble.n	10002998 <_malloc_trim_r+0x38>
100029da:	4908      	ldr	r1, [pc, #32]	; (100029fc <_malloc_trim_r+0x9c>)
100029dc:	6809      	ldr	r1, [r1, #0]
100029de:	1a40      	subs	r0, r0, r1
100029e0:	4905      	ldr	r1, [pc, #20]	; (100029f8 <_malloc_trim_r+0x98>)
100029e2:	6008      	str	r0, [r1, #0]
100029e4:	2101      	movs	r1, #1
100029e6:	430b      	orrs	r3, r1
100029e8:	6053      	str	r3, [r2, #4]
100029ea:	e7d5      	b.n	10002998 <_malloc_trim_r+0x38>
100029ec:	200006a8 	.word	0x200006a8
100029f0:	00000fef 	.word	0x00000fef
100029f4:	00000fff 	.word	0x00000fff
100029f8:	20000bf0 	.word	0x20000bf0
100029fc:	200006a0 	.word	0x200006a0

10002a00 <_free_r>:
10002a00:	b5f0      	push	{r4, r5, r6, r7, lr}
10002a02:	46d6      	mov	lr, sl
10002a04:	464f      	mov	r7, r9
10002a06:	4646      	mov	r6, r8
10002a08:	0005      	movs	r5, r0
10002a0a:	b5c0      	push	{r6, r7, lr}
10002a0c:	1e0c      	subs	r4, r1, #0
10002a0e:	d05c      	beq.n	10002aca <_free_r+0xca>
10002a10:	f7ff ff5c 	bl	100028cc <__malloc_lock>
10002a14:	0021      	movs	r1, r4
10002a16:	3908      	subs	r1, #8
10002a18:	684f      	ldr	r7, [r1, #4]
10002a1a:	2401      	movs	r4, #1
10002a1c:	003b      	movs	r3, r7
10002a1e:	2203      	movs	r2, #3
10002a20:	43a3      	bics	r3, r4
10002a22:	18c8      	adds	r0, r1, r3
10002a24:	6846      	ldr	r6, [r0, #4]
10002a26:	4396      	bics	r6, r2
10002a28:	46b1      	mov	r9, r6
10002a2a:	4e66      	ldr	r6, [pc, #408]	; (10002bc4 <_free_r+0x1c4>)
10002a2c:	68b2      	ldr	r2, [r6, #8]
10002a2e:	4282      	cmp	r2, r0
10002a30:	d100      	bne.n	10002a34 <_free_r+0x34>
10002a32:	e075      	b.n	10002b20 <_free_r+0x120>
10002a34:	464a      	mov	r2, r9
10002a36:	6042      	str	r2, [r0, #4]
10002a38:	1882      	adds	r2, r0, r2
10002a3a:	4694      	mov	ip, r2
10002a3c:	423c      	tst	r4, r7
10002a3e:	d129      	bne.n	10002a94 <_free_r+0x94>
10002a40:	680f      	ldr	r7, [r1, #0]
10002a42:	1bc9      	subs	r1, r1, r7
10002a44:	688a      	ldr	r2, [r1, #8]
10002a46:	19db      	adds	r3, r3, r7
10002a48:	4690      	mov	r8, r2
10002a4a:	4662      	mov	r2, ip
10002a4c:	6857      	ldr	r7, [r2, #4]
10002a4e:	2208      	movs	r2, #8
10002a50:	4694      	mov	ip, r2
10002a52:	4027      	ands	r7, r4
10002a54:	44b4      	add	ip, r6
10002a56:	46ba      	mov	sl, r7
10002a58:	45e0      	cmp	r8, ip
10002a5a:	d056      	beq.n	10002b0a <_free_r+0x10a>
10002a5c:	68ca      	ldr	r2, [r1, #12]
10002a5e:	4694      	mov	ip, r2
10002a60:	4642      	mov	r2, r8
10002a62:	4667      	mov	r7, ip
10002a64:	60d7      	str	r7, [r2, #12]
10002a66:	4662      	mov	r2, ip
10002a68:	4647      	mov	r7, r8
10002a6a:	6097      	str	r7, [r2, #8]
10002a6c:	4652      	mov	r2, sl
10002a6e:	2a00      	cmp	r2, #0
10002a70:	d113      	bne.n	10002a9a <_free_r+0x9a>
10002a72:	2201      	movs	r2, #1
10002a74:	444b      	add	r3, r9
10002a76:	18cf      	adds	r7, r1, r3
10002a78:	46bc      	mov	ip, r7
10002a7a:	6884      	ldr	r4, [r0, #8]
10002a7c:	4f52      	ldr	r7, [pc, #328]	; (10002bc8 <_free_r+0x1c8>)
10002a7e:	431a      	orrs	r2, r3
10002a80:	42bc      	cmp	r4, r7
10002a82:	d100      	bne.n	10002a86 <_free_r+0x86>
10002a84:	e07a      	b.n	10002b7c <_free_r+0x17c>
10002a86:	68c0      	ldr	r0, [r0, #12]
10002a88:	60e0      	str	r0, [r4, #12]
10002a8a:	6084      	str	r4, [r0, #8]
10002a8c:	604a      	str	r2, [r1, #4]
10002a8e:	4662      	mov	r2, ip
10002a90:	6013      	str	r3, [r2, #0]
10002a92:	e005      	b.n	10002aa0 <_free_r+0xa0>
10002a94:	6857      	ldr	r7, [r2, #4]
10002a96:	4227      	tst	r7, r4
10002a98:	d0eb      	beq.n	10002a72 <_free_r+0x72>
10002a9a:	431c      	orrs	r4, r3
10002a9c:	604c      	str	r4, [r1, #4]
10002a9e:	6003      	str	r3, [r0, #0]
10002aa0:	4a4a      	ldr	r2, [pc, #296]	; (10002bcc <_free_r+0x1cc>)
10002aa2:	4293      	cmp	r3, r2
10002aa4:	d816      	bhi.n	10002ad4 <_free_r+0xd4>
10002aa6:	08db      	lsrs	r3, r3, #3
10002aa8:	3aff      	subs	r2, #255	; 0xff
10002aaa:	1098      	asrs	r0, r3, #2
10002aac:	3aff      	subs	r2, #255	; 0xff
10002aae:	4082      	lsls	r2, r0
10002ab0:	6870      	ldr	r0, [r6, #4]
10002ab2:	00db      	lsls	r3, r3, #3
10002ab4:	4302      	orrs	r2, r0
10002ab6:	6072      	str	r2, [r6, #4]
10002ab8:	199e      	adds	r6, r3, r6
10002aba:	68b3      	ldr	r3, [r6, #8]
10002abc:	60ce      	str	r6, [r1, #12]
10002abe:	608b      	str	r3, [r1, #8]
10002ac0:	60b1      	str	r1, [r6, #8]
10002ac2:	60d9      	str	r1, [r3, #12]
10002ac4:	0028      	movs	r0, r5
10002ac6:	f7ff ff03 	bl	100028d0 <__malloc_unlock>
10002aca:	bc1c      	pop	{r2, r3, r4}
10002acc:	4690      	mov	r8, r2
10002ace:	4699      	mov	r9, r3
10002ad0:	46a2      	mov	sl, r4
10002ad2:	bdf0      	pop	{r4, r5, r6, r7, pc}
10002ad4:	0a5c      	lsrs	r4, r3, #9
10002ad6:	2c04      	cmp	r4, #4
10002ad8:	d83a      	bhi.n	10002b50 <_free_r+0x150>
10002ada:	099c      	lsrs	r4, r3, #6
10002adc:	0020      	movs	r0, r4
10002ade:	3439      	adds	r4, #57	; 0x39
10002ae0:	3038      	adds	r0, #56	; 0x38
10002ae2:	00e4      	lsls	r4, r4, #3
10002ae4:	1934      	adds	r4, r6, r4
10002ae6:	3c08      	subs	r4, #8
10002ae8:	68a2      	ldr	r2, [r4, #8]
10002aea:	2703      	movs	r7, #3
10002aec:	4294      	cmp	r4, r2
10002aee:	d03e      	beq.n	10002b6e <_free_r+0x16e>
10002af0:	6850      	ldr	r0, [r2, #4]
10002af2:	43b8      	bics	r0, r7
10002af4:	4298      	cmp	r0, r3
10002af6:	d902      	bls.n	10002afe <_free_r+0xfe>
10002af8:	6892      	ldr	r2, [r2, #8]
10002afa:	4294      	cmp	r4, r2
10002afc:	d1f8      	bne.n	10002af0 <_free_r+0xf0>
10002afe:	68d4      	ldr	r4, [r2, #12]
10002b00:	60cc      	str	r4, [r1, #12]
10002b02:	608a      	str	r2, [r1, #8]
10002b04:	60a1      	str	r1, [r4, #8]
10002b06:	60d1      	str	r1, [r2, #12]
10002b08:	e7dc      	b.n	10002ac4 <_free_r+0xc4>
10002b0a:	2f00      	cmp	r7, #0
10002b0c:	d155      	bne.n	10002bba <_free_r+0x1ba>
10002b0e:	68c2      	ldr	r2, [r0, #12]
10002b10:	444b      	add	r3, r9
10002b12:	6880      	ldr	r0, [r0, #8]
10002b14:	431c      	orrs	r4, r3
10002b16:	60c2      	str	r2, [r0, #12]
10002b18:	6090      	str	r0, [r2, #8]
10002b1a:	604c      	str	r4, [r1, #4]
10002b1c:	50cb      	str	r3, [r1, r3]
10002b1e:	e7d1      	b.n	10002ac4 <_free_r+0xc4>
10002b20:	444b      	add	r3, r9
10002b22:	423c      	tst	r4, r7
10002b24:	d106      	bne.n	10002b34 <_free_r+0x134>
10002b26:	680a      	ldr	r2, [r1, #0]
10002b28:	1a89      	subs	r1, r1, r2
10002b2a:	6888      	ldr	r0, [r1, #8]
10002b2c:	189b      	adds	r3, r3, r2
10002b2e:	68ca      	ldr	r2, [r1, #12]
10002b30:	60c2      	str	r2, [r0, #12]
10002b32:	6090      	str	r0, [r2, #8]
10002b34:	2201      	movs	r2, #1
10002b36:	431a      	orrs	r2, r3
10002b38:	604a      	str	r2, [r1, #4]
10002b3a:	4a25      	ldr	r2, [pc, #148]	; (10002bd0 <_free_r+0x1d0>)
10002b3c:	60b1      	str	r1, [r6, #8]
10002b3e:	6812      	ldr	r2, [r2, #0]
10002b40:	429a      	cmp	r2, r3
10002b42:	d8bf      	bhi.n	10002ac4 <_free_r+0xc4>
10002b44:	4b23      	ldr	r3, [pc, #140]	; (10002bd4 <_free_r+0x1d4>)
10002b46:	0028      	movs	r0, r5
10002b48:	6819      	ldr	r1, [r3, #0]
10002b4a:	f7ff ff09 	bl	10002960 <_malloc_trim_r>
10002b4e:	e7b9      	b.n	10002ac4 <_free_r+0xc4>
10002b50:	2c14      	cmp	r4, #20
10002b52:	d907      	bls.n	10002b64 <_free_r+0x164>
10002b54:	2c54      	cmp	r4, #84	; 0x54
10002b56:	d819      	bhi.n	10002b8c <_free_r+0x18c>
10002b58:	0b1c      	lsrs	r4, r3, #12
10002b5a:	0020      	movs	r0, r4
10002b5c:	346f      	adds	r4, #111	; 0x6f
10002b5e:	306e      	adds	r0, #110	; 0x6e
10002b60:	00e4      	lsls	r4, r4, #3
10002b62:	e7bf      	b.n	10002ae4 <_free_r+0xe4>
10002b64:	0020      	movs	r0, r4
10002b66:	345c      	adds	r4, #92	; 0x5c
10002b68:	305b      	adds	r0, #91	; 0x5b
10002b6a:	00e4      	lsls	r4, r4, #3
10002b6c:	e7ba      	b.n	10002ae4 <_free_r+0xe4>
10002b6e:	2301      	movs	r3, #1
10002b70:	1080      	asrs	r0, r0, #2
10002b72:	4083      	lsls	r3, r0
10002b74:	6870      	ldr	r0, [r6, #4]
10002b76:	4303      	orrs	r3, r0
10002b78:	6073      	str	r3, [r6, #4]
10002b7a:	e7c1      	b.n	10002b00 <_free_r+0x100>
10002b7c:	60e1      	str	r1, [r4, #12]
10002b7e:	60a1      	str	r1, [r4, #8]
10002b80:	604a      	str	r2, [r1, #4]
10002b82:	4662      	mov	r2, ip
10002b84:	60cc      	str	r4, [r1, #12]
10002b86:	608c      	str	r4, [r1, #8]
10002b88:	6013      	str	r3, [r2, #0]
10002b8a:	e79b      	b.n	10002ac4 <_free_r+0xc4>
10002b8c:	20aa      	movs	r0, #170	; 0xaa
10002b8e:	0040      	lsls	r0, r0, #1
10002b90:	4284      	cmp	r4, r0
10002b92:	d805      	bhi.n	10002ba0 <_free_r+0x1a0>
10002b94:	0bdc      	lsrs	r4, r3, #15
10002b96:	0020      	movs	r0, r4
10002b98:	3478      	adds	r4, #120	; 0x78
10002b9a:	3077      	adds	r0, #119	; 0x77
10002b9c:	00e4      	lsls	r4, r4, #3
10002b9e:	e7a1      	b.n	10002ae4 <_free_r+0xe4>
10002ba0:	480d      	ldr	r0, [pc, #52]	; (10002bd8 <_free_r+0x1d8>)
10002ba2:	4284      	cmp	r4, r0
10002ba4:	d805      	bhi.n	10002bb2 <_free_r+0x1b2>
10002ba6:	0c9c      	lsrs	r4, r3, #18
10002ba8:	0020      	movs	r0, r4
10002baa:	347d      	adds	r4, #125	; 0x7d
10002bac:	307c      	adds	r0, #124	; 0x7c
10002bae:	00e4      	lsls	r4, r4, #3
10002bb0:	e798      	b.n	10002ae4 <_free_r+0xe4>
10002bb2:	24fe      	movs	r4, #254	; 0xfe
10002bb4:	207e      	movs	r0, #126	; 0x7e
10002bb6:	00a4      	lsls	r4, r4, #2
10002bb8:	e794      	b.n	10002ae4 <_free_r+0xe4>
10002bba:	431c      	orrs	r4, r3
10002bbc:	604c      	str	r4, [r1, #4]
10002bbe:	6003      	str	r3, [r0, #0]
10002bc0:	e780      	b.n	10002ac4 <_free_r+0xc4>
10002bc2:	46c0      	nop			; (mov r8, r8)
10002bc4:	200006a8 	.word	0x200006a8
10002bc8:	200006b0 	.word	0x200006b0
10002bcc:	000001ff 	.word	0x000001ff
10002bd0:	200006a4 	.word	0x200006a4
10002bd4:	20000bec 	.word	0x20000bec
10002bd8:	00000554 	.word	0x00000554

10002bdc <_fini>:
10002bdc:	b5f8      	push	{r3, r4, r5, r6, r7, lr}
10002bde:	46c0      	nop			; (mov r8, r8)

10002be0 <__mutex_exit_veneer>:
10002be0:	b401      	push	{r0}
10002be2:	4802      	ldr	r0, [pc, #8]	; (10002bec <__mutex_exit_veneer+0xc>)
10002be4:	4684      	mov	ip, r0
10002be6:	bc01      	pop	{r0}
10002be8:	4760      	bx	ip
10002bea:	bf00      	nop
10002bec:	20000171 	.word	0x20000171

10002bf0 <____aeabi_idiv0_veneer>:
10002bf0:	b401      	push	{r0}
10002bf2:	4802      	ldr	r0, [pc, #8]	; (10002bfc <____aeabi_idiv0_veneer+0xc>)
10002bf4:	4684      	mov	ip, r0
10002bf6:	bc01      	pop	{r0}
10002bf8:	4760      	bx	ip
10002bfa:	bf00      	nop
10002bfc:	20000199 	.word	0x20000199

10002c00 <__mutex_try_enter_block_until_veneer>:
10002c00:	b401      	push	{r0}
10002c02:	4802      	ldr	r0, [pc, #8]	; (10002c0c <__mutex_try_enter_block_until_veneer+0xc>)
10002c04:	4684      	mov	ip, r0
10002c06:	bc01      	pop	{r0}
10002c08:	4760      	bx	ip
10002c0a:	bf00      	nop
10002c0c:	200000c1 	.word	0x200000c1

Disassembly of section .data:

200000c0 <mutex_try_enter_block_until>:
200000c0:	b5f0      	push	{r4, r5, r6, r7, lr}
200000c2:	46c6      	mov	lr, r8
200000c4:	0015      	movs	r5, r2
200000c6:	b500      	push	{lr}
200000c8:	0004      	movs	r4, r0
200000ca:	001e      	movs	r6, r3
200000cc:	6802      	ldr	r2, [r0, #0]
200000ce:	f3ef 8110 	mrs	r1, PRIMASK
200000d2:	b672      	cpsid	i
200000d4:	6813      	ldr	r3, [r2, #0]
200000d6:	2b00      	cmp	r3, #0
200000d8:	d0fc      	beq.n	200000d4 <mutex_try_enter_block_until+0x14>
200000da:	f3bf 8f5f 	dmb	sy
200000de:	2304      	movs	r3, #4
200000e0:	56e3      	ldrsb	r3, [r4, r3]
200000e2:	2b00      	cmp	r3, #0
200000e4:	db36      	blt.n	20000154 <mutex_try_enter_block_until+0x94>
200000e6:	6822      	ldr	r2, [r4, #0]
200000e8:	f3bf 8f5f 	dmb	sy
200000ec:	2000      	movs	r0, #0
200000ee:	6010      	str	r0, [r2, #0]
200000f0:	f381 8810 	msr	PRIMASK, r1
200000f4:	22d0      	movs	r2, #208	; 0xd0
200000f6:	2700      	movs	r7, #0
200000f8:	0612      	lsls	r2, r2, #24
200000fa:	57d7      	ldrsb	r7, [r2, r7]
200000fc:	429f      	cmp	r7, r3
200000fe:	d103      	bne.n	20000108 <mutex_try_enter_block_until+0x48>
20000100:	2000      	movs	r0, #0
20000102:	bc04      	pop	{r2}
20000104:	4690      	mov	r8, r2
20000106:	bdf0      	pop	{r4, r5, r6, r7, pc}
20000108:	2300      	movs	r3, #0
2000010a:	4698      	mov	r8, r3
2000010c:	e00c      	b.n	20000128 <mutex_try_enter_block_until+0x68>
2000010e:	6822      	ldr	r2, [r4, #0]
20000110:	f3bf 8f5f 	dmb	sy
20000114:	4641      	mov	r1, r8
20000116:	6011      	str	r1, [r2, #0]
20000118:	f383 8810 	msr	PRIMASK, r3
2000011c:	0028      	movs	r0, r5
2000011e:	0031      	movs	r1, r6
20000120:	f000 f83e 	bl	200001a0 <__best_effort_wfe_or_timeout_veneer>
20000124:	2800      	cmp	r0, #0
20000126:	d1eb      	bne.n	20000100 <mutex_try_enter_block_until+0x40>
20000128:	6822      	ldr	r2, [r4, #0]
2000012a:	f3ef 8310 	mrs	r3, PRIMASK
2000012e:	b672      	cpsid	i
20000130:	6811      	ldr	r1, [r2, #0]
20000132:	2900      	cmp	r1, #0
20000134:	d0fc      	beq.n	20000130 <mutex_try_enter_block_until+0x70>
20000136:	f3bf 8f5f 	dmb	sy
2000013a:	7922      	ldrb	r2, [r4, #4]
2000013c:	2a7f      	cmp	r2, #127	; 0x7f
2000013e:	d9e6      	bls.n	2000010e <mutex_try_enter_block_until+0x4e>
20000140:	6822      	ldr	r2, [r4, #0]
20000142:	7127      	strb	r7, [r4, #4]
20000144:	f3bf 8f5f 	dmb	sy
20000148:	2100      	movs	r1, #0
2000014a:	6011      	str	r1, [r2, #0]
2000014c:	f383 8810 	msr	PRIMASK, r3
20000150:	2001      	movs	r0, #1
20000152:	e7d6      	b.n	20000102 <mutex_try_enter_block_until+0x42>
20000154:	23d0      	movs	r3, #208	; 0xd0
20000156:	061b      	lsls	r3, r3, #24
20000158:	681b      	ldr	r3, [r3, #0]
2000015a:	7123      	strb	r3, [r4, #4]
2000015c:	6823      	ldr	r3, [r4, #0]
2000015e:	f3bf 8f5f 	dmb	sy
20000162:	2200      	movs	r2, #0
20000164:	601a      	str	r2, [r3, #0]
20000166:	f381 8810 	msr	PRIMASK, r1
2000016a:	2001      	movs	r0, #1
2000016c:	e7c9      	b.n	20000102 <mutex_try_enter_block_until+0x42>
2000016e:	46c0      	nop			; (mov r8, r8)

20000170 <mutex_exit>:
20000170:	6802      	ldr	r2, [r0, #0]
20000172:	f3ef 8110 	mrs	r1, PRIMASK
20000176:	b672      	cpsid	i
20000178:	6813      	ldr	r3, [r2, #0]
2000017a:	2b00      	cmp	r3, #0
2000017c:	d0fc      	beq.n	20000178 <mutex_exit+0x8>
2000017e:	f3bf 8f5f 	dmb	sy
20000182:	23ff      	movs	r3, #255	; 0xff
20000184:	7103      	strb	r3, [r0, #4]
20000186:	6803      	ldr	r3, [r0, #0]
20000188:	f3bf 8f5f 	dmb	sy
2000018c:	2200      	movs	r2, #0
2000018e:	601a      	str	r2, [r3, #0]
20000190:	f381 8810 	msr	PRIMASK, r1
20000194:	bf40      	sev
20000196:	4770      	bx	lr

20000198 <__aeabi_idiv0>:
20000198:	4770      	bx	lr
2000019a:	46c0      	nop			; (mov r8, r8)
2000019c:	0000      	movs	r0, r0
	...

200001a0 <__best_effort_wfe_or_timeout_veneer>:
200001a0:	b401      	push	{r0}
200001a2:	4802      	ldr	r0, [pc, #8]	; (200001ac <__best_effort_wfe_or_timeout_veneer+0xc>)
200001a4:	4684      	mov	ip, r0
200001a6:	bc01      	pop	{r0}
200001a8:	4760      	bx	ip
200001aa:	bf00      	nop
200001ac:	10000e15 	.word	0x10000e15

200001b0 <striped_spin_lock_num>:
200001b0:	00000010                                ....

200001b4 <irq_handler_chain_slots>:
200001b4:	00000000 	.word	0x00000000
200001b8:	00010000 	.word	0x00010000
	...
200001c4:	00020000 	.word	0x00020000
	...
200001d0:	00030000 	.word	0x00030000
	...
200001dc:	00ff0000 	.word	0x00ff0000
200001e0:	00000000 	.word	0x00000000

200001e4 <irq_handler_chain_first_slot>:
200001e4:	b501      	push	{r0, lr}
200001e6:	6848      	ldr	r0, [r1, #4]
200001e8:	3101      	adds	r1, #1
200001ea:	468e      	mov	lr, r1
200001ec:	4700      	bx	r0

200001ee <irq_handler_chain_remove_tail>:
200001ee:	4670      	mov	r0, lr
200001f0:	3809      	subs	r0, #9
200001f2:	4901      	ldr	r1, [pc, #4]	; (200001f8 <irq_handler_chain_remove_tail+0xa>)
200001f4:	4788      	blx	r1
200001f6:	bd01      	pop	{r0, pc}
200001f8:	1000066d 	.word	0x1000066d

200001fc <default_alarm_pool>:
200001fc:	20000214 00000000 20000ad0 20000c60     ... ....... `.. 
	...

20000214 <default_alarm_pool_heap>:
20000214:	20000c70 00000000 00000000 00000010     p.. ............
	...

20000230 <aeabi_bits_funcs>:
20000230:	00003350 	.word	0x00003350
20000234:	0000334c 	.word	0x0000334c
20000238:	00003354 	.word	0x00003354
2000023c:	00003352 	.word	0x00003352

20000240 <aeabi_bits_funcs_end>:
20000240:	0000534d 	.word	0x0000534d
20000244:	0000434d 	.word	0x0000434d
20000248:	00003453 	.word	0x00003453
2000024c:	00003443 	.word	0x00003443

20000250 <stdio_uart>:
20000250:	100020b9 00000000 10002105 100021b1     . .......!...!..
20000260:	00000000 00000100                       ........

20000268 <i2c0_inst>:
20000268:	40044000 00000000                       .@.@....

20000270 <_impure_ptr>:
20000270:	20000278 00000000                       x.. ....

20000278 <impure_data>:
20000278:	00000000 20000564 200005cc 20000634     ....d.. ... 4.. 
	...
20000320:	00000001 00000000 abcd330e e66d1234     .........3..4.m.
20000330:	0005deec 0000000b 00000000 00000000     ................
	...

200006a0 <__malloc_sbrk_base>:
200006a0:	ffffffff                                ....

200006a4 <__malloc_trim_threshold>:
200006a4:	00020000                                ....

200006a8 <__malloc_av_>:
	...
200006b0:	200006a8 200006a8 200006b0 200006b0     ... ... ... ... 
200006c0:	200006b8 200006b8 200006c0 200006c0     ... ... ... ... 
200006d0:	200006c8 200006c8 200006d0 200006d0     ... ... ... ... 
200006e0:	200006d8 200006d8 200006e0 200006e0     ... ... ... ... 
200006f0:	200006e8 200006e8 200006f0 200006f0     ... ... ... ... 
20000700:	200006f8 200006f8 20000700 20000700     ... ... ... ... 
20000710:	20000708 20000708 20000710 20000710     ... ... ... ... 
20000720:	20000718 20000718 20000720 20000720     ... ...  ..  .. 
20000730:	20000728 20000728 20000730 20000730     (.. (.. 0.. 0.. 
20000740:	20000738 20000738 20000740 20000740     8.. 8.. @.. @.. 
20000750:	20000748 20000748 20000750 20000750     H.. H.. P.. P.. 
20000760:	20000758 20000758 20000760 20000760     X.. X.. `.. `.. 
20000770:	20000768 20000768 20000770 20000770     h.. h.. p.. p.. 
20000780:	20000778 20000778 20000780 20000780     x.. x.. ... ... 
20000790:	20000788 20000788 20000790 20000790     ... ... ... ... 
200007a0:	20000798 20000798 200007a0 200007a0     ... ... ... ... 
200007b0:	200007a8 200007a8 200007b0 200007b0     ... ... ... ... 
200007c0:	200007b8 200007b8 200007c0 200007c0     ... ... ... ... 
200007d0:	200007c8 200007c8 200007d0 200007d0     ... ... ... ... 
200007e0:	200007d8 200007d8 200007e0 200007e0     ... ... ... ... 
200007f0:	200007e8 200007e8 200007f0 200007f0     ... ... ... ... 
20000800:	200007f8 200007f8 20000800 20000800     ... ... ... ... 
20000810:	20000808 20000808 20000810 20000810     ... ... ... ... 
20000820:	20000818 20000818 20000820 20000820     ... ...  ..  .. 
20000830:	20000828 20000828 20000830 20000830     (.. (.. 0.. 0.. 
20000840:	20000838 20000838 20000840 20000840     8.. 8.. @.. @.. 
20000850:	20000848 20000848 20000850 20000850     H.. H.. P.. P.. 
20000860:	20000858 20000858 20000860 20000860     X.. X.. `.. `.. 
20000870:	20000868 20000868 20000870 20000870     h.. h.. p.. p.. 
20000880:	20000878 20000878 20000880 20000880     x.. x.. ... ... 
20000890:	20000888 20000888 20000890 20000890     ... ... ... ... 
200008a0:	20000898 20000898 200008a0 200008a0     ... ... ... ... 
200008b0:	200008a8 200008a8 200008b0 200008b0     ... ... ... ... 
200008c0:	200008b8 200008b8 200008c0 200008c0     ... ... ... ... 
200008d0:	200008c8 200008c8 200008d0 200008d0     ... ... ... ... 
200008e0:	200008d8 200008d8 200008e0 200008e0     ... ... ... ... 
200008f0:	200008e8 200008e8 200008f0 200008f0     ... ... ... ... 
20000900:	200008f8 200008f8 20000900 20000900     ... ... ... ... 
20000910:	20000908 20000908 20000910 20000910     ... ... ... ... 
20000920:	20000918 20000918 20000920 20000920     ... ...  ..  .. 
20000930:	20000928 20000928 20000930 20000930     (.. (.. 0.. 0.. 
20000940:	20000938 20000938 20000940 20000940     8.. 8.. @.. @.. 
20000950:	20000948 20000948 20000950 20000950     H.. H.. P.. P.. 
20000960:	20000958 20000958 20000960 20000960     X.. X.. `.. `.. 
20000970:	20000968 20000968 20000970 20000970     h.. h.. p.. p.. 
20000980:	20000978 20000978 20000980 20000980     x.. x.. ... ... 
20000990:	20000988 20000988 20000990 20000990     ... ... ... ... 
200009a0:	20000998 20000998 200009a0 200009a0     ... ... ... ... 
200009b0:	200009a8 200009a8 200009b0 200009b0     ... ... ... ... 
200009c0:	200009b8 200009b8 200009c0 200009c0     ... ... ... ... 
200009d0:	200009c8 200009c8 200009d0 200009d0     ... ... ... ... 
200009e0:	200009d8 200009d8 200009e0 200009e0     ... ... ... ... 
200009f0:	200009e8 200009e8 200009f0 200009f0     ... ... ... ... 
20000a00:	200009f8 200009f8 20000a00 20000a00     ... ... ... ... 
20000a10:	20000a08 20000a08 20000a10 20000a10     ... ... ... ... 
20000a20:	20000a18 20000a18 20000a20 20000a20     ... ...  ..  .. 
20000a30:	20000a28 20000a28 20000a30 20000a30     (.. (.. 0.. 0.. 
20000a40:	20000a38 20000a38 20000a40 20000a40     8.. 8.. @.. @.. 
20000a50:	20000a48 20000a48 20000a50 20000a50     H.. H.. P.. P.. 
20000a60:	20000a58 20000a58 20000a60 20000a60     X.. X.. `.. `.. 
20000a70:	20000a68 20000a68 20000a70 20000a70     h.. h.. p.. p.. 
20000a80:	20000a78 20000a78 20000a80 20000a80     x.. x.. ... ... 
20000a90:	20000a88 20000a88 20000a90 20000a90     ... ... ... ... 
20000aa0:	20000a98 20000a98 20000aa0 20000aa0     ... ... ... ... 

20000ab0 <print_mutex>:
	...

20000ab8 <__mutex_array_end>:
20000ab8:	10001de5 	.word	0x10001de5
20000abc:	10001b59 	.word	0x10001b59
20000ac0:	10001c11 	.word	0x10001c11
20000ac4:	10001d31 	.word	0x10001d31

20000ac8 <__frame_dummy_init_array_entry>:
20000ac8:	10000331                                1...
